
PM.elf:     file format elf32-littleriscv
PM.elf
architecture: riscv:rv32, flags 0x00000112:
EXEC_P, HAS_SYMS, D_PAGED
start address 0x00000000

Program Header:
    LOAD off    0x00001000 vaddr 0x00000000 paddr 0x00000000 align 2**12
         filesz 0x00000004 memsz 0x00000004 flags r-x
    LOAD off    0x00001800 vaddr 0x20003800 paddr 0x00000004 align 2**12
         filesz 0x0000091c memsz 0x0000091c flags r-x
    LOAD off    0x00002920 vaddr 0x00000920 paddr 0x00000920 align 2**12
         filesz 0x0000198c memsz 0x0000198c flags r-x
    LOAD off    0x0000511c vaddr 0x2000411c paddr 0x000022ac align 2**12
         filesz 0x0000006c memsz 0x0000007c flags rw-

Sections:
Idx Name            Size      VMA       LMA       File off  Algn  Flags
  0 .init           00000004  00000000  00000000  00001000  2**1  CONTENTS, ALLOC, LOAD, READONLY, CODE
  1 .highcodelalign 00000000  00000004  00000004  00005188  2**0  CONTENTS
  2 .highcode       0000091c  20003800  00000004  00001800  2**1  CONTENTS, ALLOC, LOAD, READONLY, CODE
  3 .text           0000198c  00000920  00000920  00002920  2**2  CONTENTS, ALLOC, LOAD, READONLY, CODE
  4 .fini           00000000  000022ac  000022ac  00005188  2**0  CONTENTS, ALLOC, LOAD, CODE
  5 .dalign         00000000  2000411c  2000411c  00005188  2**0  CONTENTS
  6 .dlalign        00000000  000022ac  000022ac  00005188  2**0  CONTENTS
  7 .data           0000006c  2000411c  000022ac  0000511c  2**2  CONTENTS, ALLOC, LOAD, DATA
  8 .bss            00000010  20004188  00002318  00005188  2**2  ALLOC
  9 .stack          00000000  20008000  20008000  00005188  2**0  CONTENTS
 10 .debug_info     00006e1a  00000000  00000000  00005188  2**0  CONTENTS, READONLY, DEBUGGING
 11 .debug_abbrev   000012d9  00000000  00000000  0000bfa2  2**0  CONTENTS, READONLY, DEBUGGING
 12 .debug_loc      00001649  00000000  00000000  0000d27b  2**0  CONTENTS, READONLY, DEBUGGING
 13 .debug_aranges  00000298  00000000  00000000  0000e8c8  2**3  CONTENTS, READONLY, DEBUGGING
 14 .debug_ranges   00000398  00000000  00000000  0000eb60  2**3  CONTENTS, READONLY, DEBUGGING
 15 .debug_line     000050de  00000000  00000000  0000eef8  2**0  CONTENTS, READONLY, DEBUGGING
 16 .debug_str      0000155d  00000000  00000000  00013fd6  2**0  CONTENTS, READONLY, DEBUGGING
 17 .comment        00000033  00000000  00000000  00015533  2**0  CONTENTS, READONLY
 18 .debug_frame    00000ebc  00000000  00000000  00015568  2**2  CONTENTS, READONLY, DEBUGGING
 19 .stab           00000084  00000000  00000000  00016424  2**2  CONTENTS, READONLY, DEBUGGING
 20 .stabstr        00000117  00000000  00000000  000164a8  2**0  CONTENTS, READONLY, DEBUGGING
SYMBOL TABLE:
00000000 l    d  .init	00000000 .init
00000004 l    d  .highcodelalign	00000000 .highcodelalign
20003800 l    d  .highcode	00000000 .highcode
00000920 l    d  .text	00000000 .text
000022ac l    d  .fini	00000000 .fini
2000411c l    d  .dalign	00000000 .dalign
000022ac l    d  .dlalign	00000000 .dlalign
2000411c l    d  .data	00000000 .data
20004188 l    d  .bss	00000000 .bss
20008000 l    d  .stack	00000000 .stack
00000000 l    d  .debug_info	00000000 .debug_info
00000000 l    d  .debug_abbrev	00000000 .debug_abbrev
00000000 l    d  .debug_loc	00000000 .debug_loc
00000000 l    d  .debug_aranges	00000000 .debug_aranges
00000000 l    d  .debug_ranges	00000000 .debug_ranges
00000000 l    d  .debug_line	00000000 .debug_line
00000000 l    d  .debug_str	00000000 .debug_str
00000000 l    d  .comment	00000000 .comment
00000000 l    d  .debug_frame	00000000 .debug_frame
00000000 l    d  .stab	00000000 .stab
00000000 l    d  .stabstr	00000000 .stabstr
00000000 l    df *ABS*	00000000 ./Startup/startup_CH573.o
20003800 l       .highcode	00000000 _vector_base
00000000 l    df *ABS*	00000000 Main.c
00000000 l    df *ABS*	00000000 CH57x_pwr.c
000022a4 l     O .text	00000004 CSWTCH.10
00000000 l    df *ABS*	00000000 CH57x_sys.c
00000000 l    df *ABS*	00000000 ISP573.c
20003d3e l       .highcode	00000000 .loop18
20003d4c l       .highcode	00000000 .loop29
20003d5a l       .highcode	00000000 .loop40
20003fda l       .highcode	00000000 .loop401
00000000 l    df *ABS*	00000000 CH57x_clk.c
00000000 l    df *ABS*	00000000 CH57x_gpio.c
00000000 l    df *ABS*	00000000 CH57x_uart1.c
00000000 l    df *ABS*	00000000 printf.c
00000000 l    df *ABS*	00000000 puts.c
00000000 l    df *ABS*	00000000 wbuf.c
00000000 l    df *ABS*	00000000 wsetup.c
00000000 l    df *ABS*	00000000 fflush.c
00000000 l    df *ABS*	00000000 findfp.c
000013ae l     F .text	0000006a std
00000000 l    df *ABS*	00000000 fwalk.c
00000000 l    df *ABS*	00000000 makebuf.c
00000000 l    df *ABS*	00000000 nano-mallocr.c
00000000 l    df *ABS*	00000000 nano-mallocr.c
00000000 l    df *ABS*	00000000 nano-vfprintf.c
0000185a l     F .text	0000002a __sfputc_r
00000000 l    df *ABS*	00000000 nano-vfprintf_i.c
00000000 l    df *ABS*	00000000 sbrkr.c
00000000 l    df *ABS*	00000000 stdio.c
00000000 l    df *ABS*	00000000 writer.c
00000000 l    df *ABS*	00000000 closer.c
00000000 l    df *ABS*	00000000 fstatr.c
00000000 l    df *ABS*	00000000 isattyr.c
00000000 l    df *ABS*	00000000 lseekr.c
00000000 l    df *ABS*	00000000 memchr.c
00000000 l    df *ABS*	00000000 mlock.c
00000000 l    df *ABS*	00000000 readr.c
00000000 l    df *ABS*	00000000 close.c
00000000 l    df *ABS*	00000000 fstat.c
00000000 l    df *ABS*	00000000 isatty.c
00000000 l    df *ABS*	00000000 lseek.c
00000000 l    df *ABS*	00000000 read.c
00000000 l    df *ABS*	00000000 sbrk.c
20004190 l     O .bss	00000004 heap_end.1518
00000000 l    df *ABS*	00000000 impure.c
2000411c l     O .data	00000060 impure_data
00000000 l    df *ABS*	00000000 reent.c
00002074 g     F .text	00000028 _isatty_r
00000f56 g     F .text	000000da _puts_r
0000209c g     F .text	0000002c _lseek_r
20003d5a g     F .highcode	0000000e FLASH_ROM_OUT
00000f12 g     F .text	00000044 printf
20004980 g       .data	00000000 __global_pointer$
00001fb8 g     F .text	00000036 __sseek
00001468 g     F .text	0000006a __sinit
0000103e g     F .text	000000c0 __swbuf_r
20003cf6 g     F .highcode	0000000e mDelayuS
20003cb8  w    F .highcode	0000003e HardFault_Handler
00001422 g     F .text	00000046 __sfmoreglue
2000389c  w      .highcode	00000000 GPIOB_IRQHandler
000020e4 g     F .text	00000002 __malloc_unlock
200038bc g     F .highcode	00000010 GPIOA_IRQHandler
20003894  w      .highcode	00000000 SysTick_Handler
20003890  w      .highcode	00000000 NMI_Handler
200038ac  w      .highcode	00000000 UART1_IRQHandler
200039c6 g     F .highcode	000000f0 LowPower_Sleep
0000204a g     F .text	0000002a _fstat_r
20004194 g     O .bss	00000004 errno
20004188 g       .bss	00000000 _sbss
20003d4c g     F .highcode	0000000e FLASH_ROM_IN
00000d4c g     F .text	00000082 GPIOA_ITModeCfg
200038aa  w      .highcode	00000000 UART0_IRQHandler
00001418 g     F .text	0000000a _cleanup_r
00001030 g     F .text	0000000e puts
0000211e g     F .text	0000000c _fstat
00000004 g       .init	00000000 _einit
200038a0  w      .highcode	00000000 BB_IRQHandler
20003de8 g     F .highcode	00000332 FLASH_EEPROM_CMD
00000ca6 g     F .text	000000a6 GPIOB_ModeCfg
00001f12 g     F .text	00000028 _sbrk_r
20003898  w      .highcode	00000000 TMR0_IRQHandler
000020e6 g     F .text	0000002c _read_r
20003d2c g     F .highcode	00000012 FLASH_ROM_BEG
20003d04 g     F .highcode	00000028 mDelaymS
0000212a g     F .text	0000000c _isatty
000022a8 g     O .text	00000004 _global_impure_ptr
20003d68 g     F .highcode	00000048 FLASH_ROM_ADDR
0000214e g     F .text	00000020 _sbrk
200038ae  w      .highcode	00000000 RTC_IRQHandler
20004198 g       .bss	00000000 _ebss
00000ee0 g     F .text	00000032 UART1_DefInit
20003db0 g     F .highcode	00000038 FLASH_ROM_WAIT
00002208 g     O .text	00000020 __sf_fake_stderr
20004198 g       .bss	00000000 end
200038b6  w      .highcode	00000000 UART2_IRQHandler
200038b2  w      .highcode	00000000 PWMX_IRQHandler
00001884 g     F .text	00000042 __sfputs_r
000020c8 g     F .text	0000001a memchr
000016d6 g     F .text	000000b0 _free_r
00000a66 g     F .text	00000022 DebugInit
00000000 g       .init	00000000 _start
00002136 g     F .text	0000000c _lseek
200038b0  w      .highcode	00000000 ADC_IRQHandler
20003800 g       .highcode	00000000 _highcode_vma_start
2000390a g     F .highcode	000000bc LowPower_Halt
200038a8  w      .highcode	00000000 TMR2_IRQHandler
00000dce g     F .text	00000078 PWR_PeriphWakeUpCfg
00002022 g     F .text	00000028 _close_r
2000411c g       .data	00000000 _data_vma
20003b84 g     F .highcode	000000fc SetSysClock
200038a4  w      .highcode	00000000 USB_IRQHandler
000010fe g     F .text	00000110 __swsetup_r
000014d2 g     F .text	000000a0 __sfp
00001f3a g     F .text	00000030 __sread
000020e2 g     F .text	00000002 __malloc_lock
0000134a g     F .text	00000064 _fflush_r
00002228 g     O .text	00000020 __sf_fake_stdin
000009be g     F .text	000000a8 memset
00000a88 g     F .text	0000014e main
00001fee g     F .text	00000006 __sclose
00001786 g     F .text	000000d4 _malloc_r
00000004 g       .highcodelalign	00000000 _highcode_lma
00000f12 g     F .text	00000044 iprintf
00000bd6 g     F .text	0000002a HSECFG_Current
200038a2  w      .highcode	00000000 LLE_IRQHandler
00000000 g       .init	00000000 _sinit
00001ff4 g     F .text	0000002e _write_r
00001b5e g     F .text	0000010c _printf_common
20004180 g     O .data	00000004 _impure_ptr
0000120e g     F .text	0000013c __sflush_r
200038ba  w      .highcode	00000000 WDOG_BAT_IRQHandler
200038b4  w      .highcode	00000000 TMR3_IRQHandler
20008000 g       .stack	00000000 _eusrstack
20003896  w      .highcode	00000000 SW_Handler
00000c00 g     F .text	000000a6 GPIOA_ModeCfg
000015de g     F .text	0000005a __swhatbuf_r
00000e46 g     F .text	00000042 GetSysClock
00000e88 g     F .text	00000028 _write
20004188 g       .data	00000000 _edata
2000389e  w      .highcode	00000000 SPI0_IRQHandler
2000411c g       .highcode	00000000 _highcode_vma_end
000022ac g       .dlalign	00000000 _data_lma
00001f6a g     F .text	0000004e __swrite
000018c6 g     F .text	00000298 _vfiprintf_r
00001572 g     F .text	0000006c _fwalk_reent
00002248 g     O .text	00000020 __sf_fake_stdout
00002142 g     F .text	0000000c _read
00000920  w      .text	00000000 handle_reset
20003ab6 g     F .highcode	000000ce LowPower_Shutdown
00001638 g     F .text	0000009e __smakebuf_r
00001c6a g     F .text	000002a8 _printf_i
200038b8  w      .highcode	00000000 UART3_IRQHandler
2000418c g     O .bss	00000004 __malloc_sbrk_start
20003d3e g     F .highcode	0000000e FLASH_ROM_END
20004188 g     O .bss	00000004 __malloc_free_list
200038cc g     F .highcode	0000003e LowPower_Idle
000018c6 g     F .text	00000298 _vfprintf_r
200038a6  w      .highcode	00000000 TMR1_IRQHandler
20003c80 g     F .highcode	00000038 SYS_ResetExecute
00002112 g     F .text	0000000c _close
00000eb0 g     F .text	00000030 UART1_BaudRateCfg



Disassembly of section .init:

00000000 <_sinit>:
_start():
E:/桌面文件/chelouxietong/EVT/EXAM/SRC/Startup/startup_CH573.S:17

	.section	.init,"ax",@progbits
	.global	_start
	.align	1
_start:
	j	handle_reset
   0:	1210006f          	j	920 <handle_reset>

Disassembly of section .highcode:

20003800 <_highcode_vma_start>:
	...
_vector_base():
E:/桌面文件/chelouxietong/EVT/EXAM/SRC/Startup/startup_CH573.S:25
    .align  1
_vector_base:
    .option norvc;
    .word   0
    .word   0
        j   NMI_Handler                 /* NMI Handler */
20003808:	0880006f          	j	20003890 <NMI_Handler>
E:/桌面文件/chelouxietong/EVT/EXAM/SRC/Startup/startup_CH573.S:26
        j   HardFault_Handler           /* Hard Fault Handler */
2000380c:	4ac0006f          	j	20003cb8 <HardFault_Handler>
	...
E:/桌面文件/chelouxietong/EVT/EXAM/SRC/Startup/startup_CH573.S:35
    .word   0
    .word   0
    .word   0
    .word   0
    .word   0
        j   SysTick_Handler            /* SysTick Handler */
20003830:	0640006f          	j	20003894 <SysTick_Handler>
20003834:	0000                	unimp
20003836:	0000                	unimp
E:/桌面文件/chelouxietong/EVT/EXAM/SRC/Startup/startup_CH573.S:37
    .word   0
        j   SW_Handler                 /* SW Handler */
20003838:	05e0006f          	j	20003896 <SW_Handler>
2000383c:	0000                	unimp
2000383e:	0000                	unimp
E:/桌面文件/chelouxietong/EVT/EXAM/SRC/Startup/startup_CH573.S:40
    .word   0
    /* External Interrupts */
        j   TMR0_IRQHandler            /* 0:  TMR0 */
20003840:	0580006f          	j	20003898 <TMR0_IRQHandler>
E:/桌面文件/chelouxietong/EVT/EXAM/SRC/Startup/startup_CH573.S:41
        j   GPIOA_IRQHandler           /* GPIOA */
20003844:	0780006f          	j	200038bc <GPIOA_IRQHandler>
E:/桌面文件/chelouxietong/EVT/EXAM/SRC/Startup/startup_CH573.S:42
        j   GPIOB_IRQHandler           /* GPIOB */
20003848:	0540006f          	j	2000389c <GPIOB_IRQHandler>
E:/桌面文件/chelouxietong/EVT/EXAM/SRC/Startup/startup_CH573.S:43
        j   SPI0_IRQHandler            /* SPI0 */
2000384c:	0520006f          	j	2000389e <SPI0_IRQHandler>
E:/桌面文件/chelouxietong/EVT/EXAM/SRC/Startup/startup_CH573.S:44
        j   BB_IRQHandler              /* BLEB */
20003850:	0500006f          	j	200038a0 <BB_IRQHandler>
E:/桌面文件/chelouxietong/EVT/EXAM/SRC/Startup/startup_CH573.S:45
        j   LLE_IRQHandler             /* BLEL */
20003854:	04e0006f          	j	200038a2 <LLE_IRQHandler>
E:/桌面文件/chelouxietong/EVT/EXAM/SRC/Startup/startup_CH573.S:46
        j   USB_IRQHandler             /* USB */
20003858:	04c0006f          	j	200038a4 <USB_IRQHandler>
2000385c:	0000                	unimp
2000385e:	0000                	unimp
E:/桌面文件/chelouxietong/EVT/EXAM/SRC/Startup/startup_CH573.S:48
        .word   0
        j   TMR1_IRQHandler            /* TMR1 */
20003860:	0460006f          	j	200038a6 <TMR1_IRQHandler>
E:/桌面文件/chelouxietong/EVT/EXAM/SRC/Startup/startup_CH573.S:49
        j   TMR2_IRQHandler            /* TMR2 */
20003864:	0440006f          	j	200038a8 <TMR2_IRQHandler>
E:/桌面文件/chelouxietong/EVT/EXAM/SRC/Startup/startup_CH573.S:50
        j   UART0_IRQHandler           /* UART0 */
20003868:	0420006f          	j	200038aa <UART0_IRQHandler>
E:/桌面文件/chelouxietong/EVT/EXAM/SRC/Startup/startup_CH573.S:51
        j   UART1_IRQHandler           /* UART1 */
2000386c:	0400006f          	j	200038ac <UART1_IRQHandler>
E:/桌面文件/chelouxietong/EVT/EXAM/SRC/Startup/startup_CH573.S:52
        j   RTC_IRQHandler             /* RTC */
20003870:	03e0006f          	j	200038ae <RTC_IRQHandler>
E:/桌面文件/chelouxietong/EVT/EXAM/SRC/Startup/startup_CH573.S:53
        j   ADC_IRQHandler             /* ADC */
20003874:	03c0006f          	j	200038b0 <ADC_IRQHandler>
20003878:	0000                	unimp
2000387a:	0000                	unimp
E:/桌面文件/chelouxietong/EVT/EXAM/SRC/Startup/startup_CH573.S:55
        .word   0
        j   PWMX_IRQHandler            /* PWMX */
2000387c:	0360006f          	j	200038b2 <PWMX_IRQHandler>
E:/桌面文件/chelouxietong/EVT/EXAM/SRC/Startup/startup_CH573.S:56
        j   TMR3_IRQHandler            /* TMR3 */
20003880:	0340006f          	j	200038b4 <TMR3_IRQHandler>
E:/桌面文件/chelouxietong/EVT/EXAM/SRC/Startup/startup_CH573.S:57
        j   UART2_IRQHandler           /* UART2 */
20003884:	0320006f          	j	200038b6 <UART2_IRQHandler>
E:/桌面文件/chelouxietong/EVT/EXAM/SRC/Startup/startup_CH573.S:58
        j   UART3_IRQHandler           /* UART3 */
20003888:	0300006f          	j	200038b8 <UART3_IRQHandler>
E:/桌面文件/chelouxietong/EVT/EXAM/SRC/Startup/startup_CH573.S:59
        j   WDOG_BAT_IRQHandler        /* WDOG_BAT */
2000388c:	02e0006f          	j	200038ba <WDOG_BAT_IRQHandler>

20003890 <NMI_Handler>:
NMI_Handler():
E:/桌面文件/chelouxietong/EVT/EXAM/SRC/Startup/startup_CH573.S:87
    .weak   TMR3_IRQHandler
    .weak   UART2_IRQHandler
    .weak   UART3_IRQHandler
    .weak   WDOG_BAT_IRQHandler

NMI_Handler:  1:  j 1b
20003890:	a001                	j	20003890 <NMI_Handler>
E:/桌面文件/chelouxietong/EVT/EXAM/SRC/Startup/startup_CH573.S:88
HardFault_Handler:  1:  j 1b
20003892:	a001                	j	20003892 <NMI_Handler+0x2>

20003894 <SysTick_Handler>:
SysTick_Handler():
E:/桌面文件/chelouxietong/EVT/EXAM/SRC/Startup/startup_CH573.S:89
SysTick_Handler:  1:  j 1b
20003894:	a001                	j	20003894 <SysTick_Handler>

20003896 <SW_Handler>:
SW_Handler():
E:/桌面文件/chelouxietong/EVT/EXAM/SRC/Startup/startup_CH573.S:90
SW_Handler:  1:  j 1b
20003896:	a001                	j	20003896 <SW_Handler>

20003898 <TMR0_IRQHandler>:
TMR0_IRQHandler():
E:/桌面文件/chelouxietong/EVT/EXAM/SRC/Startup/startup_CH573.S:91
TMR0_IRQHandler:  1:  j 1b
20003898:	a001                	j	20003898 <TMR0_IRQHandler>
E:/桌面文件/chelouxietong/EVT/EXAM/SRC/Startup/startup_CH573.S:92
GPIOA_IRQHandler:  1:  j 1b
2000389a:	a001                	j	2000389a <TMR0_IRQHandler+0x2>

2000389c <GPIOB_IRQHandler>:
GPIOB_IRQHandler():
E:/桌面文件/chelouxietong/EVT/EXAM/SRC/Startup/startup_CH573.S:93
GPIOB_IRQHandler:  1:  j 1b
2000389c:	a001                	j	2000389c <GPIOB_IRQHandler>

2000389e <SPI0_IRQHandler>:
SPI0_IRQHandler():
E:/桌面文件/chelouxietong/EVT/EXAM/SRC/Startup/startup_CH573.S:94
SPI0_IRQHandler:  1:  j 1b
2000389e:	a001                	j	2000389e <SPI0_IRQHandler>

200038a0 <BB_IRQHandler>:
BB_IRQHandler():
E:/桌面文件/chelouxietong/EVT/EXAM/SRC/Startup/startup_CH573.S:95
BB_IRQHandler:  1:  j 1b
200038a0:	a001                	j	200038a0 <BB_IRQHandler>

200038a2 <LLE_IRQHandler>:
LLE_IRQHandler():
E:/桌面文件/chelouxietong/EVT/EXAM/SRC/Startup/startup_CH573.S:96
LLE_IRQHandler:  1:  j 1b
200038a2:	a001                	j	200038a2 <LLE_IRQHandler>

200038a4 <USB_IRQHandler>:
USB_IRQHandler():
E:/桌面文件/chelouxietong/EVT/EXAM/SRC/Startup/startup_CH573.S:97
USB_IRQHandler:  1:  j 1b
200038a4:	a001                	j	200038a4 <USB_IRQHandler>

200038a6 <TMR1_IRQHandler>:
TMR1_IRQHandler():
E:/桌面文件/chelouxietong/EVT/EXAM/SRC/Startup/startup_CH573.S:98
TMR1_IRQHandler:  1:  j 1b
200038a6:	a001                	j	200038a6 <TMR1_IRQHandler>

200038a8 <TMR2_IRQHandler>:
TMR2_IRQHandler():
E:/桌面文件/chelouxietong/EVT/EXAM/SRC/Startup/startup_CH573.S:99
TMR2_IRQHandler:  1:  j 1b
200038a8:	a001                	j	200038a8 <TMR2_IRQHandler>

200038aa <UART0_IRQHandler>:
UART0_IRQHandler():
E:/桌面文件/chelouxietong/EVT/EXAM/SRC/Startup/startup_CH573.S:100
UART0_IRQHandler:  1:  j 1b
200038aa:	a001                	j	200038aa <UART0_IRQHandler>

200038ac <UART1_IRQHandler>:
UART1_IRQHandler():
E:/桌面文件/chelouxietong/EVT/EXAM/SRC/Startup/startup_CH573.S:101
UART1_IRQHandler:  1:  j 1b
200038ac:	a001                	j	200038ac <UART1_IRQHandler>

200038ae <RTC_IRQHandler>:
RTC_IRQHandler():
E:/桌面文件/chelouxietong/EVT/EXAM/SRC/Startup/startup_CH573.S:102
RTC_IRQHandler:  1:  j 1b
200038ae:	a001                	j	200038ae <RTC_IRQHandler>

200038b0 <ADC_IRQHandler>:
ADC_IRQHandler():
E:/桌面文件/chelouxietong/EVT/EXAM/SRC/Startup/startup_CH573.S:103
ADC_IRQHandler:  1:  j 1b
200038b0:	a001                	j	200038b0 <ADC_IRQHandler>

200038b2 <PWMX_IRQHandler>:
PWMX_IRQHandler():
E:/桌面文件/chelouxietong/EVT/EXAM/SRC/Startup/startup_CH573.S:104
PWMX_IRQHandler:  1:  j 1b
200038b2:	a001                	j	200038b2 <PWMX_IRQHandler>

200038b4 <TMR3_IRQHandler>:
TMR3_IRQHandler():
E:/桌面文件/chelouxietong/EVT/EXAM/SRC/Startup/startup_CH573.S:105
TMR3_IRQHandler:  1:  j 1b
200038b4:	a001                	j	200038b4 <TMR3_IRQHandler>

200038b6 <UART2_IRQHandler>:
UART2_IRQHandler():
E:/桌面文件/chelouxietong/EVT/EXAM/SRC/Startup/startup_CH573.S:106
UART2_IRQHandler:  1:  j 1b
200038b6:	a001                	j	200038b6 <UART2_IRQHandler>

200038b8 <UART3_IRQHandler>:
UART3_IRQHandler():
E:/桌面文件/chelouxietong/EVT/EXAM/SRC/Startup/startup_CH573.S:107
UART3_IRQHandler:  1:  j 1b
200038b8:	a001                	j	200038b8 <UART3_IRQHandler>

200038ba <WDOG_BAT_IRQHandler>:
WDOG_BAT_IRQHandler():
E:/桌面文件/chelouxietong/EVT/EXAM/SRC/Startup/startup_CH573.S:108
WDOG_BAT_IRQHandler:  1:  j 1b
200038ba:	a001                	j	200038ba <WDOG_BAT_IRQHandler>

200038bc <GPIOA_IRQHandler>:
GPIOA_IRQHandler():
E:\桌面文件\chelouxietong\EVT\EXAM\PM\obj/../src/Main.c:116
 */
__attribute__((interrupt("WCH-Interrupt-fast")))
__attribute__((section(".highcode")))
void GPIOA_IRQHandler(void)
{
    GPIOA_ClearITFlagBit(GPIO_Pin_6 | GPIO_Pin_5);
200038bc:	400017b7          	lui	a5,0x40001
200038c0:	06000713          	li	a4,96
200038c4:	08e79e23          	sh	a4,156(a5) # 4000109c <_eusrstack+0x1fff909c>
E:\桌面文件\chelouxietong\EVT\EXAM\PM\obj/../src/Main.c:117
}
200038c8:	30200073          	mret

200038cc <LowPower_Idle>:
LowPower_Idle():
E:/桌面文件/chelouxietong/EVT/EXAM/SRC/StdPeriphDriver/CH57x_pwr.c:215
 *
 * @return  none
 */
__attribute__((section(".highcode")))
void LowPower_Idle(void)
{
200038cc:	1141                	addi	sp,sp,-16
E:/桌面文件/chelouxietong/EVT/EXAM/SRC/StdPeriphDriver/CH57x_pwr.c:216
    FLASH_ROM_SW_RESET();
200038ce:	4681                	li	a3,0
200038d0:	4601                	li	a2,0
200038d2:	4581                	li	a1,0
200038d4:	4511                	li	a0,4
E:/桌面文件/chelouxietong/EVT/EXAM/SRC/StdPeriphDriver/CH57x_pwr.c:215
{
200038d6:	c606                	sw	ra,12(sp)
E:/桌面文件/chelouxietong/EVT/EXAM/SRC/StdPeriphDriver/CH57x_pwr.c:216
    FLASH_ROM_SW_RESET();
200038d8:	2b01                	jal	20003de8 <FLASH_EEPROM_CMD>
E:/桌面文件/chelouxietong/EVT/EXAM/SRC/StdPeriphDriver/CH57x_pwr.c:217
    R8_FLASH_CTRL = 0x04; //flash关闭
200038da:	400027b7          	lui	a5,0x40002
200038de:	4711                	li	a4,4
200038e0:	80e78323          	sb	a4,-2042(a5) # 40001806 <_eusrstack+0x1fff9806>
E:/桌面文件/chelouxietong/EVT/EXAM/SRC/StdPeriphDriver/CH57x_pwr.c:219

    PFIC->SCTLR &= ~(1 << 2); // sleep
200038e4:	e000f7b7          	lui	a5,0xe000f
200038e8:	d107a703          	lw	a4,-752(a5) # e000ed10 <_eusrstack+0xc0006d10>
200038ec:	9b6d                	andi	a4,a4,-5
200038ee:	d0e7a823          	sw	a4,-752(a5)
__WFI():
E:\桌面文件\chelouxietong\EVT\EXAM\SRC\RVMSIS/core_riscv.h:276
 *
 * @brief   Wait for Interrupt
 */
__attribute__((always_inline)) RV_STATIC_INLINE void __WFI(void)
{
    PFIC->SCTLR &= ~(1 << 3); // wfi
200038f2:	d107a703          	lw	a4,-752(a5)
200038f6:	9b5d                	andi	a4,a4,-9
200038f8:	d0e7a823          	sw	a4,-752(a5)
E:\桌面文件\chelouxietong\EVT\EXAM\SRC\RVMSIS/core_riscv.h:277
    __asm__ volatile("wfi");
200038fc:	10500073          	wfi
LowPower_Idle():
E:/桌面文件/chelouxietong/EVT/EXAM/SRC/StdPeriphDriver/CH57x_pwr.c:221
    __WFI();
    __nop();
20003900:	0001                	nop
E:/桌面文件/chelouxietong/EVT/EXAM/SRC/StdPeriphDriver/CH57x_pwr.c:222
    __nop();
20003902:	0001                	nop
E:/桌面文件/chelouxietong/EVT/EXAM/SRC/StdPeriphDriver/CH57x_pwr.c:223
}
20003904:	40b2                	lw	ra,12(sp)
20003906:	0141                	addi	sp,sp,16
20003908:	8082                	ret

2000390a <LowPower_Halt>:
LowPower_Halt():
E:/桌面文件/chelouxietong/EVT/EXAM/SRC/StdPeriphDriver/CH57x_pwr.c:236
 *
 * @return  none
 */
__attribute__((section(".highcode")))
void LowPower_Halt(void)
{
2000390a:	1141                	addi	sp,sp,-16
E:/桌面文件/chelouxietong/EVT/EXAM/SRC/StdPeriphDriver/CH57x_pwr.c:239
    uint8_t x32Kpw, x32Mpw;

    FLASH_ROM_SW_RESET();
2000390c:	4681                	li	a3,0
2000390e:	4581                	li	a1,0
20003910:	4601                	li	a2,0
20003912:	4511                	li	a0,4
E:/桌面文件/chelouxietong/EVT/EXAM/SRC/StdPeriphDriver/CH57x_pwr.c:236
{
20003914:	c606                	sw	ra,12(sp)
E:/桌面文件/chelouxietong/EVT/EXAM/SRC/StdPeriphDriver/CH57x_pwr.c:239
    FLASH_ROM_SW_RESET();
20003916:	29c9                	jal	20003de8 <FLASH_EEPROM_CMD>
E:/桌面文件/chelouxietong/EVT/EXAM/SRC/StdPeriphDriver/CH57x_pwr.c:240
    R8_FLASH_CTRL = 0x04; //flash关闭
20003918:	400027b7          	lui	a5,0x40002
2000391c:	4711                	li	a4,4
2000391e:	80e78323          	sb	a4,-2042(a5) # 40001806 <_eusrstack+0x1fff9806>
E:/桌面文件/chelouxietong/EVT/EXAM/SRC/StdPeriphDriver/CH57x_pwr.c:241
    x32Kpw = R8_XT32K_TUNE;
20003922:	400017b7          	lui	a5,0x40001
20003926:	02e7c703          	lbu	a4,46(a5) # 4000102e <_eusrstack+0x1fff902e>
E:/桌面文件/chelouxietong/EVT/EXAM/SRC/StdPeriphDriver/CH57x_pwr.c:242
    x32Mpw = R8_XT32M_TUNE;
2000392a:	04e7c583          	lbu	a1,78(a5)
E:/桌面文件/chelouxietong/EVT/EXAM/SRC/StdPeriphDriver/CH57x_pwr.c:244
    x32Mpw = (x32Mpw & 0xfc) | 0x03; // 150%额定电流
    if(R16_RTC_CNT_32K > 0x3fff)
2000392e:	0387d783          	lhu	a5,56(a5)
20003932:	6691                	lui	a3,0x4
E:/桌面文件/chelouxietong/EVT/EXAM/SRC/StdPeriphDriver/CH57x_pwr.c:241
    x32Kpw = R8_XT32K_TUNE;
20003934:	0ff77713          	andi	a4,a4,255
E:/桌面文件/chelouxietong/EVT/EXAM/SRC/StdPeriphDriver/CH57x_pwr.c:243
    x32Mpw = (x32Mpw & 0xfc) | 0x03; // 150%额定电流
20003938:	0035e593          	ori	a1,a1,3
E:/桌面文件/chelouxietong/EVT/EXAM/SRC/StdPeriphDriver/CH57x_pwr.c:244
    if(R16_RTC_CNT_32K > 0x3fff)
2000393c:	00d7e563          	bltu	a5,a3,20003946 <LowPower_Halt+0x3c>
E:/桌面文件/chelouxietong/EVT/EXAM/SRC/StdPeriphDriver/CH57x_pwr.c:246
    {                                    // 超过500ms
        x32Kpw = (x32Kpw & 0xfc) | 0x01; // LSE驱动电流降低到额定电流
20003940:	9b71                	andi	a4,a4,-4
20003942:	00176713          	ori	a4,a4,1
sys_safe_access_enable():
E:\桌面文件\chelouxietong\EVT\EXAM\SRC\StdPeriphDriver\inc/CH57x_sys.h:178
 * @NOTE: 进入安全访问模式后约16个系统主频周期都处于安全模式下，
 * 该有效期内可以改写一个或多个安全类寄存器，超出上述有效期后将自动终止安全模式。
 */
 __attribute__((always_inline)) static inline void sys_safe_access_enable(void)
{
    R8_SAFE_ACCESS_SIG = SAFE_ACCESS_SIG1;
20003946:	400017b7          	lui	a5,0x40001
2000394a:	05700613          	li	a2,87
2000394e:	04c78023          	sb	a2,64(a5) # 40001040 <_eusrstack+0x1fff9040>
E:\桌面文件\chelouxietong\EVT\EXAM\SRC\StdPeriphDriver\inc/CH57x_sys.h:179
    R8_SAFE_ACCESS_SIG = SAFE_ACCESS_SIG2;
20003952:	fa800693          	li	a3,-88
20003956:	04d78023          	sb	a3,64(a5)
LowPower_Halt():
E:/桌面文件/chelouxietong/EVT/EXAM/SRC/StdPeriphDriver/CH57x_pwr.c:250
    }

    sys_safe_access_enable();
    R8_BAT_DET_CTRL = 0; // 关闭电压监控
2000395a:	02078223          	sb	zero,36(a5)
sys_safe_access_enable():
E:\桌面文件\chelouxietong\EVT\EXAM\SRC\StdPeriphDriver\inc/CH57x_sys.h:178
    R8_SAFE_ACCESS_SIG = SAFE_ACCESS_SIG1;
2000395e:	04c78023          	sb	a2,64(a5)
E:\桌面文件\chelouxietong\EVT\EXAM\SRC\StdPeriphDriver\inc/CH57x_sys.h:179
    R8_SAFE_ACCESS_SIG = SAFE_ACCESS_SIG2;
20003962:	04d78023          	sb	a3,64(a5)
LowPower_Halt():
E:/桌面文件/chelouxietong/EVT/EXAM/SRC/StdPeriphDriver/CH57x_pwr.c:252
    sys_safe_access_enable();
    R8_XT32K_TUNE = x32Kpw;
20003966:	02e78723          	sb	a4,46(a5)
E:/桌面文件/chelouxietong/EVT/EXAM/SRC/StdPeriphDriver/CH57x_pwr.c:253
    R8_XT32M_TUNE = x32Mpw;
2000396a:	04b78723          	sb	a1,78(a5)
sys_safe_access_enable():
E:\桌面文件\chelouxietong\EVT\EXAM\SRC\StdPeriphDriver\inc/CH57x_sys.h:178
    R8_SAFE_ACCESS_SIG = SAFE_ACCESS_SIG1;
2000396e:	04c78023          	sb	a2,64(a5)
E:\桌面文件\chelouxietong\EVT\EXAM\SRC\StdPeriphDriver\inc/CH57x_sys.h:179
    R8_SAFE_ACCESS_SIG = SAFE_ACCESS_SIG2;
20003972:	04d78023          	sb	a3,64(a5)
LowPower_Halt():
E:/桌面文件/chelouxietong/EVT/EXAM/SRC/StdPeriphDriver/CH57x_pwr.c:255
    sys_safe_access_enable();
    R8_PLL_CONFIG |= (1 << 5);
20003976:	04b7c703          	lbu	a4,75(a5)
2000397a:	02076713          	ori	a4,a4,32
2000397e:	04e785a3          	sb	a4,75(a5)
sys_safe_access_disable():
E:\桌面文件\chelouxietong\EVT\EXAM\SRC\StdPeriphDriver\inc/CH57x_sys.h:184
}

__attribute__((always_inline)) static inline void sys_safe_access_disable(void)
{
    R8_SAFE_ACCESS_SIG = 0;
20003982:	04078023          	sb	zero,64(a5)
LowPower_Halt():
E:/桌面文件/chelouxietong/EVT/EXAM/SRC/StdPeriphDriver/CH57x_pwr.c:258
    sys_safe_access_disable();

    PFIC->SCTLR |= (1 << 2); //deep sleep
20003986:	e000f737          	lui	a4,0xe000f
2000398a:	d1072583          	lw	a1,-752(a4) # e000ed10 <_eusrstack+0xc0006d10>
2000398e:	0045e593          	ori	a1,a1,4
20003992:	d0b72823          	sw	a1,-752(a4)
__WFI():
E:\桌面文件\chelouxietong\EVT\EXAM\SRC\RVMSIS/core_riscv.h:276
    PFIC->SCTLR &= ~(1 << 3); // wfi
20003996:	d1072583          	lw	a1,-752(a4)
2000399a:	99dd                	andi	a1,a1,-9
2000399c:	d0b72823          	sw	a1,-752(a4)
E:\桌面文件\chelouxietong\EVT\EXAM\SRC\RVMSIS/core_riscv.h:277
    __asm__ volatile("wfi");
200039a0:	10500073          	wfi
LowPower_Halt():
E:/桌面文件/chelouxietong/EVT/EXAM/SRC/StdPeriphDriver/CH57x_pwr.c:260
    __WFI();
    __nop();
200039a4:	0001                	nop
E:/桌面文件/chelouxietong/EVT/EXAM/SRC/StdPeriphDriver/CH57x_pwr.c:261
    __nop();
200039a6:	0001                	nop
sys_safe_access_enable():
E:\桌面文件\chelouxietong\EVT\EXAM\SRC\StdPeriphDriver\inc/CH57x_sys.h:178
    R8_SAFE_ACCESS_SIG = SAFE_ACCESS_SIG1;
200039a8:	04c78023          	sb	a2,64(a5)
E:\桌面文件\chelouxietong\EVT\EXAM\SRC\StdPeriphDriver\inc/CH57x_sys.h:179
    R8_SAFE_ACCESS_SIG = SAFE_ACCESS_SIG2;
200039ac:	04d78023          	sb	a3,64(a5)
LowPower_Halt():
E:/桌面文件/chelouxietong/EVT/EXAM/SRC/StdPeriphDriver/CH57x_pwr.c:263
    sys_safe_access_enable();
    R8_PLL_CONFIG &= ~(1 << 5);
200039b0:	04b7c703          	lbu	a4,75(a5)
200039b4:	0df77713          	andi	a4,a4,223
200039b8:	04e785a3          	sb	a4,75(a5)
sys_safe_access_disable():
E:\桌面文件\chelouxietong\EVT\EXAM\SRC\StdPeriphDriver\inc/CH57x_sys.h:184
    R8_SAFE_ACCESS_SIG = 0;
200039bc:	04078023          	sb	zero,64(a5)
LowPower_Halt():
E:/桌面文件/chelouxietong/EVT/EXAM/SRC/StdPeriphDriver/CH57x_pwr.c:265
    sys_safe_access_disable();
}
200039c0:	40b2                	lw	ra,12(sp)
200039c2:	0141                	addi	sp,sp,16
200039c4:	8082                	ret

200039c6 <LowPower_Sleep>:
LowPower_Sleep():
E:/桌面文件/chelouxietong/EVT/EXAM/SRC/StdPeriphDriver/CH57x_pwr.c:284
 *
 * @return  none
 */
__attribute__((section(".highcode")))
void LowPower_Sleep(uint8_t rm)
{
200039c6:	1141                	addi	sp,sp,-16
200039c8:	c422                	sw	s0,8(sp)
E:/桌面文件/chelouxietong/EVT/EXAM/SRC/StdPeriphDriver/CH57x_pwr.c:287
    uint8_t x32Kpw, x32Mpw;

    FLASH_ROM_SW_RESET();
200039ca:	4681                	li	a3,0
200039cc:	4581                	li	a1,0
E:/桌面文件/chelouxietong/EVT/EXAM/SRC/StdPeriphDriver/CH57x_pwr.c:284
{
200039ce:	842a                	mv	s0,a0
E:/桌面文件/chelouxietong/EVT/EXAM/SRC/StdPeriphDriver/CH57x_pwr.c:287
    FLASH_ROM_SW_RESET();
200039d0:	4601                	li	a2,0
200039d2:	4511                	li	a0,4
E:/桌面文件/chelouxietong/EVT/EXAM/SRC/StdPeriphDriver/CH57x_pwr.c:284
{
200039d4:	c606                	sw	ra,12(sp)
E:/桌面文件/chelouxietong/EVT/EXAM/SRC/StdPeriphDriver/CH57x_pwr.c:287
    FLASH_ROM_SW_RESET();
200039d6:	2909                	jal	20003de8 <FLASH_EEPROM_CMD>
E:/桌面文件/chelouxietong/EVT/EXAM/SRC/StdPeriphDriver/CH57x_pwr.c:288
    R8_FLASH_CTRL = 0x04; //flash关闭
200039d8:	400027b7          	lui	a5,0x40002
200039dc:	4711                	li	a4,4
200039de:	80e78323          	sb	a4,-2042(a5) # 40001806 <_eusrstack+0x1fff9806>
E:/桌面文件/chelouxietong/EVT/EXAM/SRC/StdPeriphDriver/CH57x_pwr.c:289
    x32Kpw = R8_XT32K_TUNE;
200039e2:	400017b7          	lui	a5,0x40001
200039e6:	02e7c703          	lbu	a4,46(a5) # 4000102e <_eusrstack+0x1fff902e>
E:/桌面文件/chelouxietong/EVT/EXAM/SRC/StdPeriphDriver/CH57x_pwr.c:290
    x32Mpw = R8_XT32M_TUNE;
200039ea:	04e7c583          	lbu	a1,78(a5)
E:/桌面文件/chelouxietong/EVT/EXAM/SRC/StdPeriphDriver/CH57x_pwr.c:292
    x32Mpw = (x32Mpw & 0xfc) | 0x03; // 150%额定电流
    if(R16_RTC_CNT_32K > 0x3fff)
200039ee:	0387d783          	lhu	a5,56(a5)
200039f2:	6691                	lui	a3,0x4
E:/桌面文件/chelouxietong/EVT/EXAM/SRC/StdPeriphDriver/CH57x_pwr.c:289
    x32Kpw = R8_XT32K_TUNE;
200039f4:	0ff77713          	andi	a4,a4,255
E:/桌面文件/chelouxietong/EVT/EXAM/SRC/StdPeriphDriver/CH57x_pwr.c:291
    x32Mpw = (x32Mpw & 0xfc) | 0x03; // 150%额定电流
200039f8:	0035e593          	ori	a1,a1,3
E:/桌面文件/chelouxietong/EVT/EXAM/SRC/StdPeriphDriver/CH57x_pwr.c:292
    if(R16_RTC_CNT_32K > 0x3fff)
200039fc:	00d7e563          	bltu	a5,a3,20003a06 <LowPower_Sleep+0x40>
E:/桌面文件/chelouxietong/EVT/EXAM/SRC/StdPeriphDriver/CH57x_pwr.c:294
    {                                    // 超过500ms
        x32Kpw = (x32Kpw & 0xfc) | 0x01; // LSE驱动电流降低到额定电流
20003a00:	9b71                	andi	a4,a4,-4
20003a02:	00176713          	ori	a4,a4,1
sys_safe_access_enable():
E:\桌面文件\chelouxietong\EVT\EXAM\SRC\StdPeriphDriver\inc/CH57x_sys.h:178
    R8_SAFE_ACCESS_SIG = SAFE_ACCESS_SIG1;
20003a06:	400017b7          	lui	a5,0x40001
20003a0a:	05700613          	li	a2,87
20003a0e:	04c78023          	sb	a2,64(a5) # 40001040 <_eusrstack+0x1fff9040>
E:\桌面文件\chelouxietong\EVT\EXAM\SRC\StdPeriphDriver\inc/CH57x_sys.h:179
    R8_SAFE_ACCESS_SIG = SAFE_ACCESS_SIG2;
20003a12:	fa800693          	li	a3,-88
20003a16:	04d78023          	sb	a3,64(a5)
LowPower_Sleep():
E:/桌面文件/chelouxietong/EVT/EXAM/SRC/StdPeriphDriver/CH57x_pwr.c:298
    }

    sys_safe_access_enable();
    R8_BAT_DET_CTRL = 0; // 关闭电压监控
20003a1a:	02078223          	sb	zero,36(a5)
sys_safe_access_enable():
E:\桌面文件\chelouxietong\EVT\EXAM\SRC\StdPeriphDriver\inc/CH57x_sys.h:178
    R8_SAFE_ACCESS_SIG = SAFE_ACCESS_SIG1;
20003a1e:	04c78023          	sb	a2,64(a5)
E:\桌面文件\chelouxietong\EVT\EXAM\SRC\StdPeriphDriver\inc/CH57x_sys.h:179
    R8_SAFE_ACCESS_SIG = SAFE_ACCESS_SIG2;
20003a22:	04d78023          	sb	a3,64(a5)
LowPower_Sleep():
E:/桌面文件/chelouxietong/EVT/EXAM/SRC/StdPeriphDriver/CH57x_pwr.c:300
    sys_safe_access_enable();
    R8_XT32K_TUNE = x32Kpw;
20003a26:	02e78723          	sb	a4,46(a5)
E:/桌面文件/chelouxietong/EVT/EXAM/SRC/StdPeriphDriver/CH57x_pwr.c:301
    R8_XT32M_TUNE = x32Mpw;
20003a2a:	04b78723          	sb	a1,78(a5)
sys_safe_access_disable():
E:\桌面文件\chelouxietong\EVT\EXAM\SRC\StdPeriphDriver\inc/CH57x_sys.h:184
    R8_SAFE_ACCESS_SIG = 0;
20003a2e:	04078023          	sb	zero,64(a5)
LowPower_Sleep():
E:/桌面文件/chelouxietong/EVT/EXAM/SRC/StdPeriphDriver/CH57x_pwr.c:304
    sys_safe_access_disable();

    PFIC->SCTLR |= (1 << 2); //deep sleep
20003a32:	e000f737          	lui	a4,0xe000f
20003a36:	d1072583          	lw	a1,-752(a4) # e000ed10 <_eusrstack+0xc0006d10>
20003a3a:	0045e593          	ori	a1,a1,4
20003a3e:	d0b72823          	sw	a1,-752(a4)
sys_safe_access_enable():
E:\桌面文件\chelouxietong\EVT\EXAM\SRC\StdPeriphDriver\inc/CH57x_sys.h:178
    R8_SAFE_ACCESS_SIG = SAFE_ACCESS_SIG1;
20003a42:	04c78023          	sb	a2,64(a5)
E:\桌面文件\chelouxietong\EVT\EXAM\SRC\StdPeriphDriver\inc/CH57x_sys.h:179
    R8_SAFE_ACCESS_SIG = SAFE_ACCESS_SIG2;
20003a46:	04d78023          	sb	a3,64(a5)
LowPower_Sleep():
E:/桌面文件/chelouxietong/EVT/EXAM/SRC/StdPeriphDriver/CH57x_pwr.c:307

    sys_safe_access_enable();
    R8_SLP_POWER_CTRL |= RB_RAM_RET_LV;
20003a4a:	00f7c583          	lbu	a1,15(a5)
20003a4e:	0405e593          	ori	a1,a1,64
20003a52:	00b787a3          	sb	a1,15(a5)
sys_safe_access_enable():
E:\桌面文件\chelouxietong\EVT\EXAM\SRC\StdPeriphDriver\inc/CH57x_sys.h:178
    R8_SAFE_ACCESS_SIG = SAFE_ACCESS_SIG1;
20003a56:	04c78023          	sb	a2,64(a5)
E:\桌面文件\chelouxietong\EVT\EXAM\SRC\StdPeriphDriver\inc/CH57x_sys.h:179
    R8_SAFE_ACCESS_SIG = SAFE_ACCESS_SIG2;
20003a5a:	04d78023          	sb	a3,64(a5)
LowPower_Sleep():
E:/桌面文件/chelouxietong/EVT/EXAM/SRC/StdPeriphDriver/CH57x_pwr.c:309
    sys_safe_access_enable();
    R8_PLL_CONFIG |= (1 << 5);
20003a5e:	04b7c583          	lbu	a1,75(a5)
20003a62:	0205e593          	ori	a1,a1,32
20003a66:	04b785a3          	sb	a1,75(a5)
E:/桌面文件/chelouxietong/EVT/EXAM/SRC/StdPeriphDriver/CH57x_pwr.c:311
    sys_safe_access_enable();
    R16_POWER_PLAN = RB_PWR_PLAN_EN | RB_PWR_MUST_0010 | RB_PWR_CORE | rm;
20003a6a:	75e5                	lui	a1,0xffff9
20003a6c:	0591                	addi	a1,a1,4
20003a6e:	8c4d                	or	s0,s0,a1
sys_safe_access_enable():
E:\桌面文件\chelouxietong\EVT\EXAM\SRC\StdPeriphDriver\inc/CH57x_sys.h:178
    R8_SAFE_ACCESS_SIG = SAFE_ACCESS_SIG1;
20003a70:	04c78023          	sb	a2,64(a5)
LowPower_Sleep():
E:/桌面文件/chelouxietong/EVT/EXAM/SRC/StdPeriphDriver/CH57x_pwr.c:311
20003a74:	0442                	slli	s0,s0,0x10
sys_safe_access_enable():
E:\桌面文件\chelouxietong\EVT\EXAM\SRC\StdPeriphDriver\inc/CH57x_sys.h:179
    R8_SAFE_ACCESS_SIG = SAFE_ACCESS_SIG2;
20003a76:	04d78023          	sb	a3,64(a5)
LowPower_Sleep():
E:/桌面文件/chelouxietong/EVT/EXAM/SRC/StdPeriphDriver/CH57x_pwr.c:311
20003a7a:	8041                	srli	s0,s0,0x10
20003a7c:	02879023          	sh	s0,32(a5)
__WFI():
E:\桌面文件\chelouxietong\EVT\EXAM\SRC\RVMSIS/core_riscv.h:276
    PFIC->SCTLR &= ~(1 << 3); // wfi
20003a80:	d1072583          	lw	a1,-752(a4)
20003a84:	99dd                	andi	a1,a1,-9
20003a86:	d0b72823          	sw	a1,-752(a4)
E:\桌面文件\chelouxietong\EVT\EXAM\SRC\RVMSIS/core_riscv.h:277
    __asm__ volatile("wfi");
20003a8a:	10500073          	wfi
LowPower_Sleep():
E:/桌面文件/chelouxietong/EVT/EXAM/SRC/StdPeriphDriver/CH57x_pwr.c:313
    __WFI();
    __nop();
20003a8e:	0001                	nop
E:/桌面文件/chelouxietong/EVT/EXAM/SRC/StdPeriphDriver/CH57x_pwr.c:314
    __nop();
20003a90:	0001                	nop
sys_safe_access_enable():
E:\桌面文件\chelouxietong\EVT\EXAM\SRC\StdPeriphDriver\inc/CH57x_sys.h:178
    R8_SAFE_ACCESS_SIG = SAFE_ACCESS_SIG1;
20003a92:	04c78023          	sb	a2,64(a5)
E:\桌面文件\chelouxietong\EVT\EXAM\SRC\StdPeriphDriver\inc/CH57x_sys.h:179
    R8_SAFE_ACCESS_SIG = SAFE_ACCESS_SIG2;
20003a96:	04d78023          	sb	a3,64(a5)
LowPower_Sleep():
E:/桌面文件/chelouxietong/EVT/EXAM/SRC/StdPeriphDriver/CH57x_pwr.c:316
    sys_safe_access_enable();
    R8_PLL_CONFIG &= ~(1 << 5);
20003a9a:	04b7c703          	lbu	a4,75(a5)
E:/桌面文件/chelouxietong/EVT/EXAM/SRC/StdPeriphDriver/CH57x_pwr.c:318
    sys_safe_access_disable();
    mDelayuS(70);
20003a9e:	04600513          	li	a0,70
E:/桌面文件/chelouxietong/EVT/EXAM/SRC/StdPeriphDriver/CH57x_pwr.c:316
    R8_PLL_CONFIG &= ~(1 << 5);
20003aa2:	0df77713          	andi	a4,a4,223
20003aa6:	04e785a3          	sb	a4,75(a5)
sys_safe_access_disable():
E:\桌面文件\chelouxietong\EVT\EXAM\SRC\StdPeriphDriver\inc/CH57x_sys.h:184
    R8_SAFE_ACCESS_SIG = 0;
20003aaa:	04078023          	sb	zero,64(a5)
LowPower_Sleep():
E:/桌面文件/chelouxietong/EVT/EXAM/SRC/StdPeriphDriver/CH57x_pwr.c:319
}
20003aae:	4422                	lw	s0,8(sp)
20003ab0:	40b2                	lw	ra,12(sp)
20003ab2:	0141                	addi	sp,sp,16
E:/桌面文件/chelouxietong/EVT/EXAM/SRC/StdPeriphDriver/CH57x_pwr.c:318
    mDelayuS(70);
20003ab4:	a489                	j	20003cf6 <mDelayuS>

20003ab6 <LowPower_Shutdown>:
LowPower_Shutdown():
E:/桌面文件/chelouxietong/EVT/EXAM/SRC/StdPeriphDriver/CH57x_pwr.c:336
 *
 * @return  none
 */
__attribute__((section(".highcode")))
void LowPower_Shutdown(uint8_t rm)
{
20003ab6:	1101                	addi	sp,sp,-32
20003ab8:	c64e                	sw	s3,12(sp)
E:/桌面文件/chelouxietong/EVT/EXAM/SRC/StdPeriphDriver/CH57x_pwr.c:339
    uint8_t x32Kpw, x32Mpw;

    FLASH_ROM_SW_RESET();
20003aba:	4681                	li	a3,0
20003abc:	4601                	li	a2,0
E:/桌面文件/chelouxietong/EVT/EXAM/SRC/StdPeriphDriver/CH57x_pwr.c:336
{
20003abe:	89aa                	mv	s3,a0
E:/桌面文件/chelouxietong/EVT/EXAM/SRC/StdPeriphDriver/CH57x_pwr.c:339
    FLASH_ROM_SW_RESET();
20003ac0:	4581                	li	a1,0
20003ac2:	4511                	li	a0,4
E:/桌面文件/chelouxietong/EVT/EXAM/SRC/StdPeriphDriver/CH57x_pwr.c:336
{
20003ac4:	ce06                	sw	ra,28(sp)
20003ac6:	cc22                	sw	s0,24(sp)
20003ac8:	ca26                	sw	s1,20(sp)
20003aca:	c84a                	sw	s2,16(sp)
E:/桌面文件/chelouxietong/EVT/EXAM/SRC/StdPeriphDriver/CH57x_pwr.c:339
    FLASH_ROM_SW_RESET();
20003acc:	2e31                	jal	20003de8 <FLASH_EEPROM_CMD>
E:/桌面文件/chelouxietong/EVT/EXAM/SRC/StdPeriphDriver/CH57x_pwr.c:340
    R8_FLASH_CTRL = 0x04; //flash关闭
20003ace:	400027b7          	lui	a5,0x40002
20003ad2:	4711                	li	a4,4
20003ad4:	80e78323          	sb	a4,-2042(a5) # 40001806 <_eusrstack+0x1fff9806>
E:/桌面文件/chelouxietong/EVT/EXAM/SRC/StdPeriphDriver/CH57x_pwr.c:341
    x32Kpw = R8_XT32K_TUNE;
20003ad8:	400016b7          	lui	a3,0x40001
20003adc:	02e6c783          	lbu	a5,46(a3) # 4000102e <_eusrstack+0x1fff902e>
E:/桌面文件/chelouxietong/EVT/EXAM/SRC/StdPeriphDriver/CH57x_pwr.c:342
    x32Mpw = R8_XT32M_TUNE;
20003ae0:	04e6c703          	lbu	a4,78(a3)
E:/桌面文件/chelouxietong/EVT/EXAM/SRC/StdPeriphDriver/CH57x_pwr.c:344
    x32Mpw = (x32Mpw & 0xfc) | 0x03; // 150%额定电流
    if(R16_RTC_CNT_32K > 0x3fff)
20003ae4:	0386d683          	lhu	a3,56(a3)
20003ae8:	6611                	lui	a2,0x4
E:/桌面文件/chelouxietong/EVT/EXAM/SRC/StdPeriphDriver/CH57x_pwr.c:341
    x32Kpw = R8_XT32K_TUNE;
20003aea:	0ff7f793          	andi	a5,a5,255
E:/桌面文件/chelouxietong/EVT/EXAM/SRC/StdPeriphDriver/CH57x_pwr.c:343
    x32Mpw = (x32Mpw & 0xfc) | 0x03; // 150%额定电流
20003aee:	00376713          	ori	a4,a4,3
E:/桌面文件/chelouxietong/EVT/EXAM/SRC/StdPeriphDriver/CH57x_pwr.c:344
    if(R16_RTC_CNT_32K > 0x3fff)
20003af2:	00c6e563          	bltu	a3,a2,20003afc <LowPower_Shutdown+0x46>
E:/桌面文件/chelouxietong/EVT/EXAM/SRC/StdPeriphDriver/CH57x_pwr.c:346
    {                                    // 超过500ms
        x32Kpw = (x32Kpw & 0xfc) | 0x01; // LSE驱动电流降低到额定电流
20003af6:	9bf1                	andi	a5,a5,-4
20003af8:	0017e793          	ori	a5,a5,1
sys_safe_access_enable():
E:\桌面文件\chelouxietong\EVT\EXAM\SRC\StdPeriphDriver\inc/CH57x_sys.h:178
    R8_SAFE_ACCESS_SIG = SAFE_ACCESS_SIG1;
20003afc:	40001437          	lui	s0,0x40001
20003b00:	05700913          	li	s2,87
20003b04:	05240023          	sb	s2,64(s0) # 40001040 <_eusrstack+0x1fff9040>
E:\桌面文件\chelouxietong\EVT\EXAM\SRC\StdPeriphDriver\inc/CH57x_sys.h:179
    R8_SAFE_ACCESS_SIG = SAFE_ACCESS_SIG2;
20003b08:	fa800493          	li	s1,-88
20003b0c:	04940023          	sb	s1,64(s0)
LowPower_Shutdown():
E:/桌面文件/chelouxietong/EVT/EXAM/SRC/StdPeriphDriver/CH57x_pwr.c:350
    }

    sys_safe_access_enable();
    R8_BAT_DET_CTRL = 0; // 关闭电压监控
20003b10:	02040223          	sb	zero,36(s0)
sys_safe_access_enable():
E:\桌面文件\chelouxietong\EVT\EXAM\SRC\StdPeriphDriver\inc/CH57x_sys.h:178
    R8_SAFE_ACCESS_SIG = SAFE_ACCESS_SIG1;
20003b14:	05240023          	sb	s2,64(s0)
E:\桌面文件\chelouxietong\EVT\EXAM\SRC\StdPeriphDriver\inc/CH57x_sys.h:179
    R8_SAFE_ACCESS_SIG = SAFE_ACCESS_SIG2;
20003b18:	04940023          	sb	s1,64(s0)
LowPower_Shutdown():
E:/桌面文件/chelouxietong/EVT/EXAM/SRC/StdPeriphDriver/CH57x_pwr.c:352
    sys_safe_access_enable();
    R8_XT32K_TUNE = x32Kpw;
20003b1c:	02f40723          	sb	a5,46(s0)
E:/桌面文件/chelouxietong/EVT/EXAM/SRC/StdPeriphDriver/CH57x_pwr.c:353
    R8_XT32M_TUNE = x32Mpw;
20003b20:	04e40723          	sb	a4,78(s0)
sys_safe_access_disable():
E:\桌面文件\chelouxietong\EVT\EXAM\SRC\StdPeriphDriver\inc/CH57x_sys.h:184
    R8_SAFE_ACCESS_SIG = 0;
20003b24:	04040023          	sb	zero,64(s0)
LowPower_Shutdown():
E:/桌面文件/chelouxietong/EVT/EXAM/SRC/StdPeriphDriver/CH57x_pwr.c:355
    sys_safe_access_disable();
    SetSysClock( CLK_SOURCE_HSE_6_4MHz );
20003b28:	02500513          	li	a0,37
20003b2c:	28a1                	jal	20003b84 <SetSysClock>
E:/桌面文件/chelouxietong/EVT/EXAM/SRC/StdPeriphDriver/CH57x_pwr.c:357

    PFIC->SCTLR |= (1 << 2);				//deep sleep
20003b2e:	e000f7b7          	lui	a5,0xe000f
20003b32:	d107a703          	lw	a4,-752(a5) # e000ed10 <_eusrstack+0xc0006d10>
20003b36:	00476713          	ori	a4,a4,4
20003b3a:	d0e7a823          	sw	a4,-752(a5)
sys_safe_access_enable():
E:\桌面文件\chelouxietong\EVT\EXAM\SRC\StdPeriphDriver\inc/CH57x_sys.h:178
    R8_SAFE_ACCESS_SIG = SAFE_ACCESS_SIG1;
20003b3e:	05240023          	sb	s2,64(s0)
E:\桌面文件\chelouxietong\EVT\EXAM\SRC\StdPeriphDriver\inc/CH57x_sys.h:179
    R8_SAFE_ACCESS_SIG = SAFE_ACCESS_SIG2;
20003b42:	04940023          	sb	s1,64(s0)
LowPower_Shutdown():
E:/桌面文件/chelouxietong/EVT/EXAM/SRC/StdPeriphDriver/CH57x_pwr.c:360

    sys_safe_access_enable();
    R8_SLP_POWER_CTRL |= RB_RAM_RET_LV;
20003b46:	00f44703          	lbu	a4,15(s0)
20003b4a:	04076713          	ori	a4,a4,64
20003b4e:	00e407a3          	sb	a4,15(s0)
sys_safe_access_enable():
E:\桌面文件\chelouxietong\EVT\EXAM\SRC\StdPeriphDriver\inc/CH57x_sys.h:178
    R8_SAFE_ACCESS_SIG = SAFE_ACCESS_SIG1;
20003b52:	05240023          	sb	s2,64(s0)
LowPower_Shutdown():
E:/桌面文件/chelouxietong/EVT/EXAM/SRC/StdPeriphDriver/CH57x_pwr.c:362
    sys_safe_access_enable();
    R16_POWER_PLAN = RB_PWR_PLAN_EN | RB_PWR_MUST_0010 | rm;
20003b56:	6725                	lui	a4,0x9
sys_safe_access_enable():
E:\桌面文件\chelouxietong\EVT\EXAM\SRC\StdPeriphDriver\inc/CH57x_sys.h:179
    R8_SAFE_ACCESS_SIG = SAFE_ACCESS_SIG2;
20003b58:	04940023          	sb	s1,64(s0)
LowPower_Shutdown():
E:/桌面文件/chelouxietong/EVT/EXAM/SRC/StdPeriphDriver/CH57x_pwr.c:362
20003b5c:	00e9e9b3          	or	s3,s3,a4
20003b60:	03341023          	sh	s3,32(s0)
__WFI():
E:\桌面文件\chelouxietong\EVT\EXAM\SRC\RVMSIS/core_riscv.h:276
    PFIC->SCTLR &= ~(1 << 3); // wfi
20003b64:	d107a703          	lw	a4,-752(a5)
20003b68:	9b5d                	andi	a4,a4,-9
20003b6a:	d0e7a823          	sw	a4,-752(a5)
E:\桌面文件\chelouxietong\EVT\EXAM\SRC\RVMSIS/core_riscv.h:277
    __asm__ volatile("wfi");
20003b6e:	10500073          	wfi
LowPower_Shutdown():
E:/桌面文件/chelouxietong/EVT/EXAM/SRC/StdPeriphDriver/CH57x_pwr.c:364
    __WFI();
    __nop();
20003b72:	0001                	nop
E:/桌面文件/chelouxietong/EVT/EXAM/SRC/StdPeriphDriver/CH57x_pwr.c:365
    __nop();
20003b74:	0001                	nop
E:/桌面文件/chelouxietong/EVT/EXAM/SRC/StdPeriphDriver/CH57x_pwr.c:366
}
20003b76:	40f2                	lw	ra,28(sp)
20003b78:	4462                	lw	s0,24(sp)
20003b7a:	44d2                	lw	s1,20(sp)
20003b7c:	4942                	lw	s2,16(sp)
20003b7e:	49b2                	lw	s3,12(sp)
20003b80:	6105                	addi	sp,sp,32
20003b82:	8082                	ret

20003b84 <SetSysClock>:
sys_safe_access_enable():
E:\桌面文件\chelouxietong\EVT\EXAM\SRC\StdPeriphDriver\inc/CH57x_sys.h:178
    R8_SAFE_ACCESS_SIG = SAFE_ACCESS_SIG1;
20003b84:	400017b7          	lui	a5,0x40001
20003b88:	05700693          	li	a3,87
20003b8c:	04d78023          	sb	a3,64(a5) # 40001040 <_eusrstack+0x1fff9040>
E:\桌面文件\chelouxietong\EVT\EXAM\SRC\StdPeriphDriver\inc/CH57x_sys.h:179
    R8_SAFE_ACCESS_SIG = SAFE_ACCESS_SIG2;
20003b90:	fa800713          	li	a4,-88
20003b94:	04e78023          	sb	a4,64(a5)
SetSysClock():
E:/桌面文件/chelouxietong/EVT/EXAM/SRC/StdPeriphDriver/CH57x_sys.c:29
__attribute__((section(".highcode")))
void SetSysClock(SYS_CLKTypeDef sc)
{
    uint32_t i;
    sys_safe_access_enable();
    R8_PLL_CONFIG &= ~(1 << 5); //
20003b98:	04b7c603          	lbu	a2,75(a5)
20003b9c:	0df67613          	andi	a2,a2,223
20003ba0:	04c785a3          	sb	a2,75(a5)
sys_safe_access_disable():
E:\桌面文件\chelouxietong\EVT\EXAM\SRC\StdPeriphDriver\inc/CH57x_sys.h:184
    R8_SAFE_ACCESS_SIG = 0;
20003ba4:	04078023          	sb	zero,64(a5)
SetSysClock():
E:/桌面文件/chelouxietong/EVT/EXAM/SRC/StdPeriphDriver/CH57x_sys.c:31
    sys_safe_access_disable();
    if(sc & 0x20)
20003ba8:	02057613          	andi	a2,a0,32
20003bac:	c62d                	beqz	a2,20003c16 <SetSysClock+0x92>
E:/桌面文件/chelouxietong/EVT/EXAM/SRC/StdPeriphDriver/CH57x_sys.c:33
    { // HSE div
        if(!(R8_HFCK_PWR_CTRL & RB_CLK_XT32M_PON))
20003bae:	00a7c603          	lbu	a2,10(a5)
20003bb2:	8a11                	andi	a2,a2,4
20003bb4:	e20d                	bnez	a2,20003bd6 <SetSysClock+0x52>
sys_safe_access_enable():
E:\桌面文件\chelouxietong\EVT\EXAM\SRC\StdPeriphDriver\inc/CH57x_sys.h:178
    R8_SAFE_ACCESS_SIG = SAFE_ACCESS_SIG1;
20003bb6:	04d78023          	sb	a3,64(a5)
E:\桌面文件\chelouxietong\EVT\EXAM\SRC\StdPeriphDriver\inc/CH57x_sys.h:179
    R8_SAFE_ACCESS_SIG = SAFE_ACCESS_SIG2;
20003bba:	04e78023          	sb	a4,64(a5)
SetSysClock():
E:/桌面文件/chelouxietong/EVT/EXAM/SRC/StdPeriphDriver/CH57x_sys.c:36
        {
            sys_safe_access_enable();
            R8_HFCK_PWR_CTRL |= RB_CLK_XT32M_PON; // HSE power on
20003bbe:	00a7c703          	lbu	a4,10(a5)
20003bc2:	00476713          	ori	a4,a4,4
20003bc6:	00e78523          	sb	a4,10(a5)
20003bca:	4b000793          	li	a5,1200
E:/桌面文件/chelouxietong/EVT/EXAM/SRC/StdPeriphDriver/CH57x_sys.c:39 (discriminator 3)
            for(i = 0; i < 1200; i++)
            {
                __nop();
20003bce:	0001                	nop
E:/桌面文件/chelouxietong/EVT/EXAM/SRC/StdPeriphDriver/CH57x_sys.c:40 (discriminator 3)
                __nop();
20003bd0:	0001                	nop
20003bd2:	17fd                	addi	a5,a5,-1
E:/桌面文件/chelouxietong/EVT/EXAM/SRC/StdPeriphDriver/CH57x_sys.c:37 (discriminator 3)
            for(i = 0; i < 1200; i++)
20003bd4:	ffed                	bnez	a5,20003bce <SetSysClock+0x4a>
sys_safe_access_enable():
E:\桌面文件\chelouxietong\EVT\EXAM\SRC\StdPeriphDriver\inc/CH57x_sys.h:178
    R8_SAFE_ACCESS_SIG = SAFE_ACCESS_SIG1;
20003bd6:	400017b7          	lui	a5,0x40001
20003bda:	05700693          	li	a3,87
20003bde:	04d78023          	sb	a3,64(a5) # 40001040 <_eusrstack+0x1fff9040>
E:\桌面文件\chelouxietong\EVT\EXAM\SRC\StdPeriphDriver\inc/CH57x_sys.h:179
    R8_SAFE_ACCESS_SIG = SAFE_ACCESS_SIG2;
20003be2:	fa800713          	li	a4,-88
20003be6:	04e78023          	sb	a4,64(a5)
SetSysClock():
E:/桌面文件/chelouxietong/EVT/EXAM/SRC/StdPeriphDriver/CH57x_sys.c:45
            }
        }

        sys_safe_access_enable();
        R16_CLK_SYS_CFG = (0 << 6) | (sc & 0x1f);
20003bea:	897d                	andi	a0,a0,31
20003bec:	00a79423          	sh	a0,8(a5)
E:/桌面文件/chelouxietong/EVT/EXAM/SRC/StdPeriphDriver/CH57x_sys.c:46
        __nop();
20003bf0:	0001                	nop
E:/桌面文件/chelouxietong/EVT/EXAM/SRC/StdPeriphDriver/CH57x_sys.c:47
        __nop();
20003bf2:	0001                	nop
E:/桌面文件/chelouxietong/EVT/EXAM/SRC/StdPeriphDriver/CH57x_sys.c:48
        __nop();
20003bf4:	0001                	nop
E:/桌面文件/chelouxietong/EVT/EXAM/SRC/StdPeriphDriver/CH57x_sys.c:49
        __nop();
20003bf6:	0001                	nop
sys_safe_access_disable():
E:\桌面文件\chelouxietong\EVT\EXAM\SRC\StdPeriphDriver\inc/CH57x_sys.h:184
    R8_SAFE_ACCESS_SIG = 0;
20003bf8:	04078023          	sb	zero,64(a5)
sys_safe_access_enable():
E:\桌面文件\chelouxietong\EVT\EXAM\SRC\StdPeriphDriver\inc/CH57x_sys.h:178
    R8_SAFE_ACCESS_SIG = SAFE_ACCESS_SIG1;
20003bfc:	04d78023          	sb	a3,64(a5)
E:\桌面文件\chelouxietong\EVT\EXAM\SRC\StdPeriphDriver\inc/CH57x_sys.h:179
    R8_SAFE_ACCESS_SIG = SAFE_ACCESS_SIG2;
20003c00:	04e78023          	sb	a4,64(a5)
SetSysClock():
E:/桌面文件/chelouxietong/EVT/EXAM/SRC/StdPeriphDriver/CH57x_sys.c:52
        sys_safe_access_disable();
        sys_safe_access_enable();
        R8_FLASH_CFG = 0X51;
20003c04:	05100693          	li	a3,81
20003c08:	40002737          	lui	a4,0x40002
E:/桌面文件/chelouxietong/EVT/EXAM/SRC/StdPeriphDriver/CH57x_sys.c:76
        __nop();
        __nop();
        __nop();
        sys_safe_access_disable();
        sys_safe_access_enable();
        R8_FLASH_CFG = 0X53;
20003c0c:	80d703a3          	sb	a3,-2041(a4) # 40001807 <_eusrstack+0x1fff9807>
sys_safe_access_disable():
E:\桌面文件\chelouxietong\EVT\EXAM\SRC\StdPeriphDriver\inc/CH57x_sys.h:184
    R8_SAFE_ACCESS_SIG = 0;
20003c10:	04078023          	sb	zero,64(a5)
SetSysClock():
E:/桌面文件/chelouxietong/EVT/EXAM/SRC/StdPeriphDriver/CH57x_sys.c:79
        sys_safe_access_disable();
    }
}
20003c14:	8082                	ret
E:/桌面文件/chelouxietong/EVT/EXAM/SRC/StdPeriphDriver/CH57x_sys.c:56
    else if(sc & 0x40)
20003c16:	04057613          	andi	a2,a0,64
20003c1a:	de6d                	beqz	a2,20003c14 <SetSysClock+0x90>
E:/桌面文件/chelouxietong/EVT/EXAM/SRC/StdPeriphDriver/CH57x_sys.c:58
        if(!(R8_HFCK_PWR_CTRL & RB_CLK_PLL_PON))
20003c1c:	00a7c603          	lbu	a2,10(a5)
20003c20:	8a41                	andi	a2,a2,16
20003c22:	e20d                	bnez	a2,20003c44 <SetSysClock+0xc0>
sys_safe_access_enable():
E:\桌面文件\chelouxietong\EVT\EXAM\SRC\StdPeriphDriver\inc/CH57x_sys.h:178
    R8_SAFE_ACCESS_SIG = SAFE_ACCESS_SIG1;
20003c24:	04d78023          	sb	a3,64(a5)
E:\桌面文件\chelouxietong\EVT\EXAM\SRC\StdPeriphDriver\inc/CH57x_sys.h:179
    R8_SAFE_ACCESS_SIG = SAFE_ACCESS_SIG2;
20003c28:	04e78023          	sb	a4,64(a5)
SetSysClock():
E:/桌面文件/chelouxietong/EVT/EXAM/SRC/StdPeriphDriver/CH57x_sys.c:61
            R8_HFCK_PWR_CTRL |= RB_CLK_PLL_PON; // PLL power on
20003c2c:	00a7c703          	lbu	a4,10(a5)
20003c30:	01076713          	ori	a4,a4,16
20003c34:	00e78523          	sb	a4,10(a5)
20003c38:	7d000793          	li	a5,2000
E:/桌面文件/chelouxietong/EVT/EXAM/SRC/StdPeriphDriver/CH57x_sys.c:64 (discriminator 3)
                __nop();
20003c3c:	0001                	nop
E:/桌面文件/chelouxietong/EVT/EXAM/SRC/StdPeriphDriver/CH57x_sys.c:65 (discriminator 3)
                __nop();
20003c3e:	0001                	nop
20003c40:	17fd                	addi	a5,a5,-1
E:/桌面文件/chelouxietong/EVT/EXAM/SRC/StdPeriphDriver/CH57x_sys.c:62 (discriminator 3)
            for(i = 0; i < 2000; i++)
20003c42:	ffed                	bnez	a5,20003c3c <SetSysClock+0xb8>
sys_safe_access_enable():
E:\桌面文件\chelouxietong\EVT\EXAM\SRC\StdPeriphDriver\inc/CH57x_sys.h:178
    R8_SAFE_ACCESS_SIG = SAFE_ACCESS_SIG1;
20003c44:	400017b7          	lui	a5,0x40001
20003c48:	05700693          	li	a3,87
20003c4c:	04d78023          	sb	a3,64(a5) # 40001040 <_eusrstack+0x1fff9040>
E:\桌面文件\chelouxietong\EVT\EXAM\SRC\StdPeriphDriver\inc/CH57x_sys.h:179
    R8_SAFE_ACCESS_SIG = SAFE_ACCESS_SIG2;
20003c50:	fa800713          	li	a4,-88
SetSysClock():
E:/桌面文件/chelouxietong/EVT/EXAM/SRC/StdPeriphDriver/CH57x_sys.c:69
        R16_CLK_SYS_CFG = (1 << 6) | (sc & 0x1f);
20003c54:	897d                	andi	a0,a0,31
sys_safe_access_enable():
E:\桌面文件\chelouxietong\EVT\EXAM\SRC\StdPeriphDriver\inc/CH57x_sys.h:179
20003c56:	04e78023          	sb	a4,64(a5)
SetSysClock():
E:/桌面文件/chelouxietong/EVT/EXAM/SRC/StdPeriphDriver/CH57x_sys.c:69
20003c5a:	04056513          	ori	a0,a0,64
20003c5e:	00a79423          	sh	a0,8(a5)
E:/桌面文件/chelouxietong/EVT/EXAM/SRC/StdPeriphDriver/CH57x_sys.c:70
        __nop();
20003c62:	0001                	nop
E:/桌面文件/chelouxietong/EVT/EXAM/SRC/StdPeriphDriver/CH57x_sys.c:71
        __nop();
20003c64:	0001                	nop
E:/桌面文件/chelouxietong/EVT/EXAM/SRC/StdPeriphDriver/CH57x_sys.c:72
        __nop();
20003c66:	0001                	nop
E:/桌面文件/chelouxietong/EVT/EXAM/SRC/StdPeriphDriver/CH57x_sys.c:73
        __nop();
20003c68:	0001                	nop
sys_safe_access_disable():
E:\桌面文件\chelouxietong\EVT\EXAM\SRC\StdPeriphDriver\inc/CH57x_sys.h:184
    R8_SAFE_ACCESS_SIG = 0;
20003c6a:	04078023          	sb	zero,64(a5)
sys_safe_access_enable():
E:\桌面文件\chelouxietong\EVT\EXAM\SRC\StdPeriphDriver\inc/CH57x_sys.h:178
    R8_SAFE_ACCESS_SIG = SAFE_ACCESS_SIG1;
20003c6e:	04d78023          	sb	a3,64(a5)
E:\桌面文件\chelouxietong\EVT\EXAM\SRC\StdPeriphDriver\inc/CH57x_sys.h:179
    R8_SAFE_ACCESS_SIG = SAFE_ACCESS_SIG2;
20003c72:	04e78023          	sb	a4,64(a5)
SetSysClock():
E:/桌面文件/chelouxietong/EVT/EXAM/SRC/StdPeriphDriver/CH57x_sys.c:76
        R8_FLASH_CFG = 0X53;
20003c76:	05300693          	li	a3,83
20003c7a:	40002737          	lui	a4,0x40002
20003c7e:	b779                	j	20003c0c <SetSysClock+0x88>

20003c80 <SYS_ResetExecute>:
SYS_ResetExecute():
E:/桌面文件/chelouxietong/EVT/EXAM/SRC/StdPeriphDriver/CH57x_sys.c:141
 *
 * @return  none
 */
__attribute__((section(".highcode")))
void SYS_ResetExecute(void)
{
20003c80:	1141                	addi	sp,sp,-16
E:/桌面文件/chelouxietong/EVT/EXAM/SRC/StdPeriphDriver/CH57x_sys.c:142
    FLASH_ROM_SW_RESET();
20003c82:	4681                	li	a3,0
20003c84:	4601                	li	a2,0
20003c86:	4581                	li	a1,0
20003c88:	4511                	li	a0,4
E:/桌面文件/chelouxietong/EVT/EXAM/SRC/StdPeriphDriver/CH57x_sys.c:141
{
20003c8a:	c606                	sw	ra,12(sp)
E:/桌面文件/chelouxietong/EVT/EXAM/SRC/StdPeriphDriver/CH57x_sys.c:142
    FLASH_ROM_SW_RESET();
20003c8c:	2ab1                	jal	20003de8 <FLASH_EEPROM_CMD>
sys_safe_access_enable():
E:\桌面文件\chelouxietong\EVT\EXAM\SRC\StdPeriphDriver\inc/CH57x_sys.h:178
    R8_SAFE_ACCESS_SIG = SAFE_ACCESS_SIG1;
20003c8e:	400017b7          	lui	a5,0x40001
20003c92:	05700713          	li	a4,87
20003c96:	04e78023          	sb	a4,64(a5) # 40001040 <_eusrstack+0x1fff9040>
E:\桌面文件\chelouxietong\EVT\EXAM\SRC\StdPeriphDriver\inc/CH57x_sys.h:179
    R8_SAFE_ACCESS_SIG = SAFE_ACCESS_SIG2;
20003c9a:	fa800713          	li	a4,-88
20003c9e:	04e78023          	sb	a4,64(a5)
SYS_ResetExecute():
E:/桌面文件/chelouxietong/EVT/EXAM/SRC/StdPeriphDriver/CH57x_sys.c:144
    sys_safe_access_enable();
    R8_RST_WDOG_CTRL |= RB_SOFTWARE_RESET;
20003ca2:	0467c703          	lbu	a4,70(a5)
20003ca6:	00176713          	ori	a4,a4,1
20003caa:	04e78323          	sb	a4,70(a5)
sys_safe_access_disable():
E:\桌面文件\chelouxietong\EVT\EXAM\SRC\StdPeriphDriver\inc/CH57x_sys.h:184
    R8_SAFE_ACCESS_SIG = 0;
20003cae:	04078023          	sb	zero,64(a5)
SYS_ResetExecute():
E:/桌面文件/chelouxietong/EVT/EXAM/SRC/StdPeriphDriver/CH57x_sys.c:146
    sys_safe_access_disable();
}
20003cb2:	40b2                	lw	ra,12(sp)
20003cb4:	0141                	addi	sp,sp,16
20003cb6:	8082                	ret

20003cb8 <HardFault_Handler>:
HardFault_Handler():
E:/桌面文件/chelouxietong/EVT/EXAM/SRC/StdPeriphDriver/CH57x_sys.c:280
__attribute__((interrupt("WCH-Interrupt-fast")))
__attribute__((section(".highcode")))
__attribute__((weak))
void HardFault_Handler(void)
{
    FLASH_ROM_SW_RESET();
20003cb8:	4681                	li	a3,0
20003cba:	4601                	li	a2,0
20003cbc:	4581                	li	a1,0
20003cbe:	4511                	li	a0,4
20003cc0:	2225                	jal	20003de8 <FLASH_EEPROM_CMD>
sys_safe_access_enable():
E:\桌面文件\chelouxietong\EVT\EXAM\SRC\StdPeriphDriver\inc/CH57x_sys.h:178
    R8_SAFE_ACCESS_SIG = SAFE_ACCESS_SIG1;
20003cc2:	400017b7          	lui	a5,0x40001
20003cc6:	05700693          	li	a3,87
20003cca:	04d78023          	sb	a3,64(a5) # 40001040 <_eusrstack+0x1fff9040>
E:\桌面文件\chelouxietong\EVT\EXAM\SRC\StdPeriphDriver\inc/CH57x_sys.h:179
    R8_SAFE_ACCESS_SIG = SAFE_ACCESS_SIG2;
20003cce:	fa800713          	li	a4,-88
20003cd2:	04e78023          	sb	a4,64(a5)
HardFault_Handler():
E:/桌面文件/chelouxietong/EVT/EXAM/SRC/StdPeriphDriver/CH57x_sys.c:282
    sys_safe_access_enable();
    R16_INT32K_TUNE = 0xFFFF;
20003cd6:	567d                	li	a2,-1
20003cd8:	02c79623          	sh	a2,44(a5)
sys_safe_access_enable():
E:\桌面文件\chelouxietong\EVT\EXAM\SRC\StdPeriphDriver\inc/CH57x_sys.h:178
    R8_SAFE_ACCESS_SIG = SAFE_ACCESS_SIG1;
20003cdc:	04d78023          	sb	a3,64(a5)
E:\桌面文件\chelouxietong\EVT\EXAM\SRC\StdPeriphDriver\inc/CH57x_sys.h:179
    R8_SAFE_ACCESS_SIG = SAFE_ACCESS_SIG2;
20003ce0:	04e78023          	sb	a4,64(a5)
HardFault_Handler():
E:/桌面文件/chelouxietong/EVT/EXAM/SRC/StdPeriphDriver/CH57x_sys.c:284
    sys_safe_access_enable();
    R8_RST_WDOG_CTRL |= RB_SOFTWARE_RESET;
20003ce4:	0467c703          	lbu	a4,70(a5)
20003ce8:	00176713          	ori	a4,a4,1
20003cec:	04e78323          	sb	a4,70(a5)
sys_safe_access_disable():
E:\桌面文件\chelouxietong\EVT\EXAM\SRC\StdPeriphDriver\inc/CH57x_sys.h:184
    R8_SAFE_ACCESS_SIG = 0;
20003cf0:	04078023          	sb	zero,64(a5)
HardFault_Handler():
E:/桌面文件/chelouxietong/EVT/EXAM/SRC/StdPeriphDriver/CH57x_sys.c:286 (discriminator 1)
    sys_safe_access_disable();
    while(1);
20003cf4:	a001                	j	20003cf4 <HardFault_Handler+0x3c>

20003cf6 <mDelayuS>:
mDelayuS():
E:/桌面文件/chelouxietong/EVT/EXAM/SRC/StdPeriphDriver/CH57x_sys.c:303
__attribute__((section(".highcode")))
void mDelayuS(uint16_t t)
{
    uint32_t i;
#if(FREQ_SYS == 60000000)
    i = t * 15;
20003cf6:	47bd                	li	a5,15
20003cf8:	02f50533          	mul	a0,a0,a5
E:/桌面文件/chelouxietong/EVT/EXAM/SRC/StdPeriphDriver/CH57x_sys.c:325 (discriminator 1)
#elif(FREQ_SYS == 1000000)
    i = t >> 2;
#endif
    do
    {
        __nop();
20003cfc:	0001                	nop
E:/桌面文件/chelouxietong/EVT/EXAM/SRC/StdPeriphDriver/CH57x_sys.c:326 (discriminator 1)
    } while(--i);
20003cfe:	157d                	addi	a0,a0,-1
20003d00:	fd75                	bnez	a0,20003cfc <mDelayuS+0x6>
E:/桌面文件/chelouxietong/EVT/EXAM/SRC/StdPeriphDriver/CH57x_sys.c:327
}
20003d02:	8082                	ret

20003d04 <mDelaymS>:
mDelaymS():
E:/桌面文件/chelouxietong/EVT/EXAM/SRC/StdPeriphDriver/CH57x_sys.c:340
 *
 * @return  none
 */
__attribute__((section(".highcode")))
void mDelaymS(uint16_t t)
{
20003d04:	1141                	addi	sp,sp,-16
20003d06:	c422                	sw	s0,8(sp)
20003d08:	c226                	sw	s1,4(sp)
20003d0a:	c606                	sw	ra,12(sp)
20003d0c:	84aa                	mv	s1,a0
E:/桌面文件/chelouxietong/EVT/EXAM/SRC/StdPeriphDriver/CH57x_sys.c:343
    uint16_t i;

    for(i = 0; i < t; i++)
20003d0e:	4401                	li	s0,0
E:/桌面文件/chelouxietong/EVT/EXAM/SRC/StdPeriphDriver/CH57x_sys.c:343 (discriminator 1)
20003d10:	00941763          	bne	s0,s1,20003d1e <mDelaymS+0x1a>
E:/桌面文件/chelouxietong/EVT/EXAM/SRC/StdPeriphDriver/CH57x_sys.c:347
    {
        mDelayuS(1000);
    }
}
20003d14:	40b2                	lw	ra,12(sp)
20003d16:	4422                	lw	s0,8(sp)
20003d18:	4492                	lw	s1,4(sp)
20003d1a:	0141                	addi	sp,sp,16
20003d1c:	8082                	ret
E:/桌面文件/chelouxietong/EVT/EXAM/SRC/StdPeriphDriver/CH57x_sys.c:343 (discriminator 3)
    for(i = 0; i < t; i++)
20003d1e:	0405                	addi	s0,s0,1
E:/桌面文件/chelouxietong/EVT/EXAM/SRC/StdPeriphDriver/CH57x_sys.c:345 (discriminator 3)
        mDelayuS(1000);
20003d20:	3e800513          	li	a0,1000
E:/桌面文件/chelouxietong/EVT/EXAM/SRC/StdPeriphDriver/CH57x_sys.c:343 (discriminator 3)
    for(i = 0; i < t; i++)
20003d24:	0442                	slli	s0,s0,0x10
E:/桌面文件/chelouxietong/EVT/EXAM/SRC/StdPeriphDriver/CH57x_sys.c:345 (discriminator 3)
        mDelayuS(1000);
20003d26:	3fc1                	jal	20003cf6 <mDelayuS>
E:/桌面文件/chelouxietong/EVT/EXAM/SRC/StdPeriphDriver/CH57x_sys.c:343 (discriminator 3)
    for(i = 0; i < t; i++)
20003d28:	8041                	srli	s0,s0,0x10
20003d2a:	b7dd                	j	20003d10 <mDelaymS+0xc>

20003d2c <FLASH_ROM_BEG>:
FLASH_ROM_BEG():
20003d2c:	80040323          	sb	zero,-2042(s0)
20003d30:	4715                	li	a4,5
20003d32:	80e40323          	sb	a4,-2042(s0)
20003d36:	0001                	nop
20003d38:	80a40223          	sb	a0,-2044(s0)
20003d3c:	8082                	ret

20003d3e <FLASH_ROM_END>:
FLASH_ROM_END():
20003d3e:	80640783          	lb	a5,-2042(s0)
20003d42:	fe07cee3          	bltz	a5,20003d3e <FLASH_ROM_END>
20003d46:	80040323          	sb	zero,-2042(s0)
20003d4a:	8082                	ret

20003d4c <FLASH_ROM_IN>:
FLASH_ROM_IN():
20003d4c:	80640783          	lb	a5,-2042(s0)
20003d50:	fe07cee3          	bltz	a5,20003d4c <FLASH_ROM_IN>
20003d54:	80444503          	lbu	a0,-2044(s0)
20003d58:	8082                	ret

20003d5a <FLASH_ROM_OUT>:
FLASH_ROM_OUT():
20003d5a:	80640783          	lb	a5,-2042(s0)
20003d5e:	fe07cee3          	bltz	a5,20003d5a <FLASH_ROM_OUT>
20003d62:	80a40223          	sb	a0,-2044(s0)
20003d66:	8082                	ret

20003d68 <FLASH_ROM_ADDR>:
FLASH_ROM_ADDR():
20003d68:	1141                	addi	sp,sp,-16
20003d6a:	c426                	sw	s1,8(sp)
20003d6c:	c24a                	sw	s2,4(sp)
20003d6e:	c04e                	sw	s3,0(sp)
20003d70:	c606                	sw	ra,12(sp)
20003d72:	0bf57713          	andi	a4,a0,191
20003d76:	47ad                	li	a5,11
20003d78:	89aa                	mv	s3,a0
20003d7a:	892e                	mv	s2,a1
20003d7c:	4495                	li	s1,5
20003d7e:	00f70663          	beq	a4,a5,20003d8a <FLASH_ROM_ADDR+0x22>
20003d82:	4519                	li	a0,6
20003d84:	3765                	jal	20003d2c <FLASH_ROM_BEG>
20003d86:	3f65                	jal	20003d3e <FLASH_ROM_END>
20003d88:	448d                	li	s1,3
20003d8a:	854e                	mv	a0,s3
20003d8c:	3745                	jal	20003d2c <FLASH_ROM_BEG>
20003d8e:	59fd                	li	s3,-1
20003d90:	14fd                	addi	s1,s1,-1
20003d92:	01349863          	bne	s1,s3,20003da2 <FLASH_ROM_ADDR+0x3a>
20003d96:	40b2                	lw	ra,12(sp)
20003d98:	44a2                	lw	s1,8(sp)
20003d9a:	4912                	lw	s2,4(sp)
20003d9c:	4982                	lw	s3,0(sp)
20003d9e:	0141                	addi	sp,sp,16
20003da0:	8082                	ret
20003da2:	01095513          	srli	a0,s2,0x10
20003da6:	0ff57513          	andi	a0,a0,255
20003daa:	3f45                	jal	20003d5a <FLASH_ROM_OUT>
20003dac:	0922                	slli	s2,s2,0x8
20003dae:	b7cd                	j	20003d90 <FLASH_ROM_ADDR+0x28>

20003db0 <FLASH_ROM_WAIT>:
FLASH_ROM_WAIT():
20003db0:	1101                	addi	sp,sp,-32
20003db2:	cc26                	sw	s1,24(sp)
20003db4:	ce06                	sw	ra,28(sp)
20003db6:	000804b7          	lui	s1,0x80
20003dba:	3751                	jal	20003d3e <FLASH_ROM_END>
20003dbc:	4515                	li	a0,5
20003dbe:	37bd                	jal	20003d2c <FLASH_ROM_BEG>
20003dc0:	3771                	jal	20003d4c <FLASH_ROM_IN>
20003dc2:	3769                	jal	20003d4c <FLASH_ROM_IN>
20003dc4:	c62a                	sw	a0,12(sp)
20003dc6:	3fa5                	jal	20003d3e <FLASH_ROM_END>
20003dc8:	4532                	lw	a0,12(sp)
20003dca:	00157793          	andi	a5,a0,1
20003dce:	eb89                	bnez	a5,20003de0 <FLASH_ROM_WAIT+0x30>
20003dd0:	00156513          	ori	a0,a0,1
20003dd4:	0ff57513          	andi	a0,a0,255
20003dd8:	40f2                	lw	ra,28(sp)
20003dda:	44e2                	lw	s1,24(sp)
20003ddc:	6105                	addi	sp,sp,32
20003dde:	8082                	ret
20003de0:	14fd                	addi	s1,s1,-1
20003de2:	fce9                	bnez	s1,20003dbc <FLASH_ROM_WAIT+0xc>
20003de4:	4501                	li	a0,0
20003de6:	bfcd                	j	20003dd8 <FLASH_ROM_WAIT+0x28>

20003de8 <FLASH_EEPROM_CMD>:
FLASH_EEPROM_CMD():
20003de8:	7139                	addi	sp,sp,-64
20003dea:	dc26                	sw	s1,56(sp)
20003dec:	da4a                	sw	s2,52(sp)
20003dee:	d84e                	sw	s3,48(sp)
20003df0:	d652                	sw	s4,44(sp)
20003df2:	d456                	sw	s5,40(sp)
20003df4:	d25a                	sw	s6,36(sp)
20003df6:	d05e                	sw	s7,32(sp)
20003df8:	de06                	sw	ra,60(sp)
20003dfa:	ce62                	sw	s8,28(sp)
20003dfc:	cc66                	sw	s9,24(sp)
20003dfe:	e000e7b7          	lui	a5,0xe000e
20003e02:	577d                	li	a4,-1
20003e04:	0007aa83          	lw	s5,0(a5) # e000e000 <_eusrstack+0xc0006000>
20003e08:	c622                	sw	s0,12(sp)
20003e0a:	0047aa03          	lw	s4,4(a5)
20003e0e:	18e7a023          	sw	a4,384(a5)
20003e12:	18e7a223          	sw	a4,388(a5)
20003e16:	400017b7          	lui	a5,0x40001
20003e1a:	05700713          	li	a4,87
20003e1e:	04e78023          	sb	a4,64(a5) # 40001040 <_eusrstack+0x1fff9040>
20003e22:	fa800713          	li	a4,-88
20003e26:	04e78023          	sb	a4,64(a5)
20003e2a:	0447c783          	lbu	a5,68(a5)
20003e2e:	ff750b93          	addi	s7,a0,-9
20003e32:	84b6                	mv	s1,a3
20003e34:	07e2                	slli	a5,a5,0x18
20003e36:	0ffbfb93          	andi	s7,s7,255
20003e3a:	4685                	li	a3,1
20003e3c:	89aa                	mv	s3,a0
20003e3e:	8b2e                	mv	s6,a1
20003e40:	8932                	mv	s2,a2
20003e42:	40002437          	lui	s0,0x40002
20003e46:	87e1                	srai	a5,a5,0x18
20003e48:	5701                	li	a4,-32
20003e4a:	0176fa63          	bgeu	a3,s7,20003e5e <FLASH_EEPROM_CMD+0x76>
20003e4e:	00d50863          	beq	a0,a3,20003e5e <FLASH_EEPROM_CMD+0x76>
20003e52:	4689                	li	a3,2
20003e54:	02000713          	li	a4,32
20003e58:	00d51363          	bne	a0,a3,20003e5e <FLASH_EEPROM_CMD+0x76>
20003e5c:	5701                	li	a4,-32
20003e5e:	8fd9                	or	a5,a5,a4
20003e60:	0ff7f793          	andi	a5,a5,255
20003e64:	40001cb7          	lui	s9,0x40001
20003e68:	04fc8223          	sb	a5,68(s9) # 40001044 <_eusrstack+0x1fff9044>
20003e6c:	4711                	li	a4,4
20003e6e:	80e40323          	sb	a4,-2042(s0) # 40001806 <_eusrstack+0x1fff9806>
20003e72:	0ff00513          	li	a0,255
20003e76:	3d5d                	jal	20003d2c <FLASH_ROM_BEG>
20003e78:	4c09                	li	s8,2
20003e7a:	35d1                	jal	20003d3e <FLASH_ROM_END>
20003e7c:	117c6963          	bltu	s8,s7,20003f8e <FLASH_EEPROM_CMD+0x1a6>
20003e80:	000707b7          	lui	a5,0x70
20003e84:	9b3e                	add	s6,s6,a5
20003e86:	00078737          	lui	a4,0x78
20003e8a:	5579                	li	a0,-2
20003e8c:	02eb7e63          	bgeu	s6,a4,20003ec8 <FLASH_EEPROM_CMD+0xe0>
20003e90:	009b07b3          	add	a5,s6,s1
20003e94:	02f76a63          	bltu	a4,a5,20003ec8 <FLASH_EEPROM_CMD+0xe0>
20003e98:	47a9                	li	a5,10
20003e9a:	06f99963          	bne	s3,a5,20003f0c <FLASH_EEPROM_CMD+0x124>
20003e9e:	e489                	bnez	s1,20003ea8 <FLASH_EEPROM_CMD+0xc0>
20003ea0:	4481                	li	s1,0
20003ea2:	3d71                	jal	20003d3e <FLASH_ROM_END>
20003ea4:	8526                	mv	a0,s1
20003ea6:	a00d                	j	20003ec8 <FLASH_EEPROM_CMD+0xe0>
20003ea8:	85da                	mv	a1,s6
20003eaa:	4509                	li	a0,2
20003eac:	3d75                	jal	20003d68 <FLASH_ROM_ADDR>
20003eae:	0905                	addi	s2,s2,1
20003eb0:	fff94503          	lbu	a0,-1(s2)
20003eb4:	14fd                	addi	s1,s1,-1
20003eb6:	0b05                	addi	s6,s6,1
20003eb8:	354d                	jal	20003d5a <FLASH_ROM_OUT>
20003eba:	c481                	beqz	s1,20003ec2 <FLASH_EEPROM_CMD+0xda>
20003ebc:	0ffb7793          	andi	a5,s6,255
20003ec0:	f7fd                	bnez	a5,20003eae <FLASH_EEPROM_CMD+0xc6>
20003ec2:	35fd                	jal	20003db0 <FLASH_ROM_WAIT>
20003ec4:	fd69                	bnez	a0,20003e9e <FLASH_EEPROM_CMD+0xb6>
20003ec6:	557d                	li	a0,-1
20003ec8:	400017b7          	lui	a5,0x40001
20003ecc:	05700713          	li	a4,87
20003ed0:	04e78023          	sb	a4,64(a5) # 40001040 <_eusrstack+0x1fff9040>
20003ed4:	fa800713          	li	a4,-88
20003ed8:	04e78023          	sb	a4,64(a5)
20003edc:	0447c703          	lbu	a4,68(a5)
20003ee0:	8b41                	andi	a4,a4,16
20003ee2:	04e78223          	sb	a4,68(a5)
20003ee6:	50f2                	lw	ra,60(sp)
20003ee8:	e000e7b7          	lui	a5,0xe000e
20003eec:	1157a023          	sw	s5,256(a5) # e000e100 <_eusrstack+0xc0006100>
20003ef0:	1147a223          	sw	s4,260(a5)
20003ef4:	54e2                	lw	s1,56(sp)
20003ef6:	4432                	lw	s0,12(sp)
20003ef8:	5952                	lw	s2,52(sp)
20003efa:	59c2                	lw	s3,48(sp)
20003efc:	5a32                	lw	s4,44(sp)
20003efe:	5aa2                	lw	s5,40(sp)
20003f00:	5b12                	lw	s6,36(sp)
20003f02:	5b82                	lw	s7,32(sp)
20003f04:	4c72                	lw	s8,28(sp)
20003f06:	4ce2                	lw	s9,24(sp)
20003f08:	6121                	addi	sp,sp,64
20003f0a:	8082                	ret
20003f0c:	47a5                	li	a5,9
20003f0e:	06f99563          	bne	s3,a5,20003f78 <FLASH_EEPROM_CMD+0x190>
20003f12:	6985                	lui	s3,0x1
20003f14:	0ff00913          	li	s2,255
20003f18:	009906b3          	add	a3,s2,s1
20003f1c:	012b74b3          	and	s1,s6,s2
20003f20:	94b6                	add	s1,s1,a3
20003f22:	fff94913          	not	s2,s2
20003f26:	009974b3          	and	s1,s2,s1
20003f2a:	6b85                	lui	s7,0x1
20003f2c:	01697933          	and	s2,s2,s6
20003f30:	6b41                	lui	s6,0x10
20003f32:	fff98793          	addi	a5,s3,-1 # fff <_puts_r+0xa9>
20003f36:	0127f7b3          	and	a5,a5,s2
20003f3a:	e399                	bnez	a5,20003f40 <FLASH_EEPROM_CMD+0x158>
20003f3c:	0134fc63          	bgeu	s1,s3,20003f54 <FLASH_EEPROM_CMD+0x16c>
20003f40:	0049d993          	srli	s3,s3,0x4
20003f44:	47c1                	li	a5,16
20003f46:	ff37e6e3          	bltu	a5,s3,20003f32 <FLASH_EEPROM_CMD+0x14a>
20003f4a:	bf99                	j	20003ea0 <FLASH_EEPROM_CMD+0xb8>
20003f4c:	6905                	lui	s2,0x1
20003f4e:	69c1                	lui	s3,0x10
20003f50:	197d                	addi	s2,s2,-1
20003f52:	b7d9                	j	20003f18 <FLASH_EEPROM_CMD+0x130>
20003f54:	0d800513          	li	a0,216
20003f58:	01698863          	beq	s3,s6,20003f68 <FLASH_EEPROM_CMD+0x180>
20003f5c:	02000513          	li	a0,32
20003f60:	01798463          	beq	s3,s7,20003f68 <FLASH_EEPROM_CMD+0x180>
20003f64:	08100513          	li	a0,129
20003f68:	85ca                	mv	a1,s2
20003f6a:	3bfd                	jal	20003d68 <FLASH_ROM_ADDR>
20003f6c:	3591                	jal	20003db0 <FLASH_ROM_WAIT>
20003f6e:	dd21                	beqz	a0,20003ec6 <FLASH_EEPROM_CMD+0xde>
20003f70:	994e                	add	s2,s2,s3
20003f72:	413484b3          	sub	s1,s1,s3
20003f76:	b7d9                	j	20003f3c <FLASH_EEPROM_CMD+0x154>
20003f78:	85da                	mv	a1,s6
20003f7a:	452d                	li	a0,11
20003f7c:	33f5                	jal	20003d68 <FLASH_ROM_ADDR>
20003f7e:	94ca                	add	s1,s1,s2
20003f80:	f29900e3          	beq	s2,s1,20003ea0 <FLASH_EEPROM_CMD+0xb8>
20003f84:	0905                	addi	s2,s2,1
20003f86:	33d9                	jal	20003d4c <FLASH_ROM_IN>
20003f88:	fea90fa3          	sb	a0,-1(s2) # fff <_puts_r+0xa9>
20003f8c:	bfd5                	j	20003f80 <FLASH_EEPROM_CMD+0x198>
20003f8e:	fff98793          	addi	a5,s3,-1 # ffff <_data_lma+0xdd53>
20003f92:	0ff7f793          	andi	a5,a5,255
20003f96:	08fc6c63          	bltu	s8,a5,2000402e <.loop401+0x54>
20003f9a:	045cc703          	lbu	a4,69(s9)
20003f9e:	000807b7          	lui	a5,0x80
20003fa2:	02077713          	andi	a4,a4,32
20003fa6:	e319                	bnez	a4,20003fac <FLASH_EEPROM_CMD+0x1c4>
20003fa8:	000787b7          	lui	a5,0x78
20003fac:	5579                	li	a0,-2
20003fae:	f0fb7de3          	bgeu	s6,a5,20003ec8 <FLASH_EEPROM_CMD+0xe0>
20003fb2:	009b0733          	add	a4,s6,s1
20003fb6:	f0e7e9e3          	bltu	a5,a4,20003ec8 <FLASH_EEPROM_CMD+0xe0>
20003fba:	4789                	li	a5,2
20003fbc:	04f99063          	bne	s3,a5,20003ffc <.loop401+0x22>
20003fc0:	8089                	srli	s1,s1,0x2
20003fc2:	49d5                	li	s3,21
20003fc4:	ec048ee3          	beqz	s1,20003ea0 <FLASH_EEPROM_CMD+0xb8>
20003fc8:	85da                	mv	a1,s6
20003fca:	4509                	li	a0,2
20003fcc:	3b71                	jal	20003d68 <FLASH_ROM_ADDR>
20003fce:	0911                	addi	s2,s2,4
20003fd0:	ffc92703          	lw	a4,-4(s2)
20003fd4:	4791                	li	a5,4
20003fd6:	80e42023          	sw	a4,-2048(s0)

20003fda <.loop401>:
20003fda:	80640703          	lb	a4,-2042(s0)
20003fde:	fe074ee3          	bltz	a4,20003fda <.loop401>
20003fe2:	81340323          	sb	s3,-2042(s0)
20003fe6:	17fd                	addi	a5,a5,-1
20003fe8:	fbed                	bnez	a5,20003fda <.loop401>
20003fea:	14fd                	addi	s1,s1,-1
20003fec:	0b11                	addi	s6,s6,4
20003fee:	c481                	beqz	s1,20003ff6 <.loop401+0x1c>
20003ff0:	0ffb7793          	andi	a5,s6,255
20003ff4:	ffe9                	bnez	a5,20003fce <FLASH_EEPROM_CMD+0x1e6>
20003ff6:	3b6d                	jal	20003db0 <FLASH_ROM_WAIT>
20003ff8:	f571                	bnez	a0,20003fc4 <FLASH_EEPROM_CMD+0x1dc>
20003ffa:	b5f1                	j	20003ec6 <FLASH_EEPROM_CMD+0xde>
20003ffc:	4785                	li	a5,1
20003ffe:	f4f987e3          	beq	s3,a5,20003f4c <FLASH_EEPROM_CMD+0x164>
20004002:	85da                	mv	a1,s6
20004004:	452d                	li	a0,11
20004006:	338d                	jal	20003d68 <FLASH_ROM_ADDR>
20004008:	fff48993          	addi	s3,s1,-1 # 7ffff <_data_lma+0x7dd53>
2000400c:	e8048ae3          	beqz	s1,20003ea0 <FLASH_EEPROM_CMD+0xb8>
20004010:	3b35                	jal	20003d4c <FLASH_ROM_IN>
20004012:	0039f793          	andi	a5,s3,3
20004016:	eb91                	bnez	a5,2000402a <.loop401+0x50>
20004018:	80042683          	lw	a3,-2048(s0)
2000401c:	00092703          	lw	a4,0(s2)
20004020:	00490793          	addi	a5,s2,4
20004024:	e6e69fe3          	bne	a3,a4,20003ea2 <FLASH_EEPROM_CMD+0xba>
20004028:	893e                	mv	s2,a5
2000402a:	84ce                	mv	s1,s3
2000402c:	bff1                	j	20004008 <.loop401+0x2e>
2000402e:	47b5                	li	a5,13
20004030:	00f99663          	bne	s3,a5,2000403c <.loop401+0x62>
20004034:	0b900513          	li	a0,185
20004038:	39d5                	jal	20003d2c <FLASH_ROM_BEG>
2000403a:	b59d                	j	20003ea0 <FLASH_EEPROM_CMD+0xb8>
2000403c:	47b1                	li	a5,12
2000403e:	0ab00513          	li	a0,171
20004042:	fef98be3          	beq	s3,a5,20004038 <.loop401+0x5e>
20004046:	4799                	li	a5,6
20004048:	02f99e63          	bne	s3,a5,20004084 <.loop401+0xaa>
2000404c:	85da                	mv	a1,s6
2000404e:	452d                	li	a0,11
20004050:	3b21                	jal	20003d68 <FLASH_ROM_ADDR>
20004052:	4481                	li	s1,0
20004054:	4b8d                	li	s7,3
20004056:	49a1                	li	s3,8
20004058:	39d5                	jal	20003d4c <FLASH_ROM_IN>
2000405a:	01749663          	bne	s1,s7,20004066 <.loop401+0x8c>
2000405e:	80042783          	lw	a5,-2048(s0)
20004062:	00f92023          	sw	a5,0(s2)
20004066:	0485                	addi	s1,s1,1
20004068:	ff3498e3          	bne	s1,s3,20004058 <.loop401+0x7e>
2000406c:	80042783          	lw	a5,-2048(s0)
20004070:	012b1713          	slli	a4,s6,0x12
20004074:	00075563          	bgez	a4,2000407e <.loop401+0xa4>
20004078:	00f91223          	sh	a5,4(s2)
2000407c:	b515                	j	20003ea0 <FLASH_EEPROM_CMD+0xb8>
2000407e:	00f92223          	sw	a5,4(s2)
20004082:	bd39                	j	20003ea0 <FLASH_EEPROM_CMD+0xb8>
20004084:	479d                	li	a5,7
20004086:	02f99963          	bne	s3,a5,200040b8 <.loop401+0xde>
2000408a:	4581                	li	a1,0
2000408c:	04b00513          	li	a0,75
20004090:	39e1                	jal	20003d68 <FLASH_ROM_ADDR>
20004092:	44bd                	li	s1,15
20004094:	00092023          	sw	zero,0(s2)
20004098:	00092223          	sw	zero,4(s2)
2000409c:	59fd                	li	s3,-1
2000409e:	317d                	jal	20003d4c <FLASH_ROM_IN>
200040a0:	0074f793          	andi	a5,s1,7
200040a4:	97ca                	add	a5,a5,s2
200040a6:	0007c703          	lbu	a4,0(a5) # 78000 <_data_lma+0x75d54>
200040aa:	14fd                	addi	s1,s1,-1
200040ac:	8d39                	xor	a0,a0,a4
200040ae:	00a78023          	sb	a0,0(a5)
200040b2:	ff3496e3          	bne	s1,s3,2000409e <.loop401+0xc4>
200040b6:	b3ed                	j	20003ea0 <FLASH_EEPROM_CMD+0xb8>
200040b8:	47a1                	li	a5,8
200040ba:	04f99263          	bne	s3,a5,200040fe <.loop401+0x124>
200040be:	39cd                	jal	20003db0 <FLASH_ROM_WAIT>
200040c0:	4481                	li	s1,0
200040c2:	000b0d63          	beqz	s6,200040dc <.loop401+0x102>
200040c6:	478d                	li	a5,3
200040c8:	03c00493          	li	s1,60
200040cc:	00fb0863          	beq	s6,a5,200040dc <.loop401+0x102>
200040d0:	05000493          	li	s1,80
200040d4:	018b0463          	beq	s6,s8,200040dc <.loop401+0x102>
200040d8:	04400493          	li	s1,68
200040dc:	07c57513          	andi	a0,a0,124
200040e0:	dc9500e3          	beq	a0,s1,20003ea0 <FLASH_EEPROM_CMD+0xb8>
200040e4:	4519                	li	a0,6
200040e6:	3199                	jal	20003d2c <FLASH_ROM_BEG>
200040e8:	3999                	jal	20003d3e <FLASH_ROM_END>
200040ea:	4505                	li	a0,1
200040ec:	3181                	jal	20003d2c <FLASH_ROM_BEG>
200040ee:	8526                	mv	a0,s1
200040f0:	31ad                	jal	20003d5a <FLASH_ROM_OUT>
200040f2:	4509                	li	a0,2
200040f4:	319d                	jal	20003d5a <FLASH_ROM_OUT>
200040f6:	396d                	jal	20003db0 <FLASH_ROM_WAIT>
200040f8:	da0514e3          	bnez	a0,20003ea0 <FLASH_EEPROM_CMD+0xb8>
200040fc:	b3e9                	j	20003ec6 <FLASH_EEPROM_CMD+0xde>
200040fe:	4791                	li	a5,4
20004100:	00f99963          	bne	s3,a5,20004112 <.loop401+0x138>
20004104:	06600513          	li	a0,102
20004108:	3115                	jal	20003d2c <FLASH_ROM_BEG>
2000410a:	3915                	jal	20003d3e <FLASH_ROM_END>
2000410c:	09900513          	li	a0,153
20004110:	b725                	j	20004038 <.loop401+0x5e>
20004112:	d80987e3          	beqz	s3,20003ea0 <FLASH_EEPROM_CMD+0xb8>
20004116:	54f1                	li	s1,-4
20004118:	b369                	j	20003ea2 <FLASH_EEPROM_CMD+0xba>
	...

Disassembly of section .text:

00000920 <handle_reset>:
handle_reset():
E:/桌面文件/chelouxietong/EVT/EXAM/SRC/Startup/startup_CH573.S:116
	.weak	handle_reset
	.align	1
handle_reset:
.option push 
.option	norelax 
	la gp, __global_pointer$
     920:	20004197          	auipc	gp,0x20004
     924:	06018193          	addi	gp,gp,96 # 20004980 <__global_pointer$>
E:/桌面文件/chelouxietong/EVT/EXAM/SRC/Startup/startup_CH573.S:119
.option	pop 
1:
	la sp, _eusrstack 
     928:	20007117          	auipc	sp,0x20007
     92c:	6d810113          	addi	sp,sp,1752 # 20008000 <_eusrstack>
E:/桌面文件/chelouxietong/EVT/EXAM/SRC/Startup/startup_CH573.S:123

/* Load highcode code  section from flash to RAM */
2:
    la a0, _highcode_lma
     930:	00400513          	li	a0,4
E:/桌面文件/chelouxietong/EVT/EXAM/SRC/Startup/startup_CH573.S:124
    la a1, _highcode_vma_start
     934:	20003597          	auipc	a1,0x20003
     938:	ecc58593          	addi	a1,a1,-308 # 20003800 <_highcode_vma_start>
E:/桌面文件/chelouxietong/EVT/EXAM/SRC/Startup/startup_CH573.S:125
    la a2, _highcode_vma_end
     93c:	20003617          	auipc	a2,0x20003
     940:	7e060613          	addi	a2,a2,2016 # 2000411c <_highcode_vma_end>
E:/桌面文件/chelouxietong/EVT/EXAM/SRC/Startup/startup_CH573.S:126
    bgeu a1, a2, 2f
     944:	00c5fa63          	bgeu	a1,a2,958 <handle_reset+0x38>
E:/桌面文件/chelouxietong/EVT/EXAM/SRC/Startup/startup_CH573.S:128
1:
    lw t0, (a0)
     948:	00052283          	lw	t0,0(a0)
E:/桌面文件/chelouxietong/EVT/EXAM/SRC/Startup/startup_CH573.S:129
    sw t0, (a1)
     94c:	0055a023          	sw	t0,0(a1)
E:/桌面文件/chelouxietong/EVT/EXAM/SRC/Startup/startup_CH573.S:130
    addi a0, a0, 4
     950:	0511                	addi	a0,a0,4
E:/桌面文件/chelouxietong/EVT/EXAM/SRC/Startup/startup_CH573.S:131
    addi a1, a1, 4
     952:	0591                	addi	a1,a1,4
E:/桌面文件/chelouxietong/EVT/EXAM/SRC/Startup/startup_CH573.S:132
    bltu a1, a2, 1b
     954:	fec5eae3          	bltu	a1,a2,948 <handle_reset+0x28>
E:/桌面文件/chelouxietong/EVT/EXAM/SRC/Startup/startup_CH573.S:136

/* Load data section from flash to RAM */
2:
	la a0, _data_lma
     958:	00002517          	auipc	a0,0x2
     95c:	95450513          	addi	a0,a0,-1708 # 22ac <_data_lma>
E:/桌面文件/chelouxietong/EVT/EXAM/SRC/Startup/startup_CH573.S:137
	la a1, _data_vma
     960:	20003597          	auipc	a1,0x20003
     964:	7bc58593          	addi	a1,a1,1980 # 2000411c <_highcode_vma_end>
E:/桌面文件/chelouxietong/EVT/EXAM/SRC/Startup/startup_CH573.S:138
	la a2, _edata
     968:	80818613          	addi	a2,gp,-2040 # 20004188 <_edata>
E:/桌面文件/chelouxietong/EVT/EXAM/SRC/Startup/startup_CH573.S:139
	bgeu a1, a2, 2f
     96c:	00c5fa63          	bgeu	a1,a2,980 <handle_reset+0x60>
E:/桌面文件/chelouxietong/EVT/EXAM/SRC/Startup/startup_CH573.S:141
1:
	lw t0, (a0)
     970:	00052283          	lw	t0,0(a0)
E:/桌面文件/chelouxietong/EVT/EXAM/SRC/Startup/startup_CH573.S:142
	sw t0, (a1)
     974:	0055a023          	sw	t0,0(a1)
E:/桌面文件/chelouxietong/EVT/EXAM/SRC/Startup/startup_CH573.S:143
	addi a0, a0, 4
     978:	0511                	addi	a0,a0,4
E:/桌面文件/chelouxietong/EVT/EXAM/SRC/Startup/startup_CH573.S:144
	addi a1, a1, 4
     97a:	0591                	addi	a1,a1,4
E:/桌面文件/chelouxietong/EVT/EXAM/SRC/Startup/startup_CH573.S:145
	bltu a1, a2, 1b
     97c:	fec5eae3          	bltu	a1,a2,970 <handle_reset+0x50>
E:/桌面文件/chelouxietong/EVT/EXAM/SRC/Startup/startup_CH573.S:148
2:
	/* clear bss section */
	la a0, _sbss
     980:	80818513          	addi	a0,gp,-2040 # 20004188 <_edata>
E:/桌面文件/chelouxietong/EVT/EXAM/SRC/Startup/startup_CH573.S:149
	la a1, _ebss
     984:	81818593          	addi	a1,gp,-2024 # 20004198 <_ebss>
E:/桌面文件/chelouxietong/EVT/EXAM/SRC/Startup/startup_CH573.S:150
	bgeu a0, a1, 2f
     988:	00b57763          	bgeu	a0,a1,996 <handle_reset+0x76>
E:/桌面文件/chelouxietong/EVT/EXAM/SRC/Startup/startup_CH573.S:152
1:
	sw zero, (a0)
     98c:	00052023          	sw	zero,0(a0)
E:/桌面文件/chelouxietong/EVT/EXAM/SRC/Startup/startup_CH573.S:153
	addi a0, a0, 4
     990:	0511                	addi	a0,a0,4
E:/桌面文件/chelouxietong/EVT/EXAM/SRC/Startup/startup_CH573.S:154
	bltu a0, a1, 1b
     992:	feb56de3          	bltu	a0,a1,98c <handle_reset+0x6c>
E:/桌面文件/chelouxietong/EVT/EXAM/SRC/Startup/startup_CH573.S:156
2:
    li t0, 0x88
     996:	08800293          	li	t0,136
E:/桌面文件/chelouxietong/EVT/EXAM/SRC/Startup/startup_CH573.S:157
    csrs mstatus, t0
     99a:	3002a073          	csrs	mstatus,t0
E:/桌面文件/chelouxietong/EVT/EXAM/SRC/Startup/startup_CH573.S:158
	la t0, _vector_base
     99e:	20003297          	auipc	t0,0x20003
     9a2:	e6228293          	addi	t0,t0,-414 # 20003800 <_highcode_vma_start>
E:/桌面文件/chelouxietong/EVT/EXAM/SRC/Startup/startup_CH573.S:159
    ori t0, t0, 1
     9a6:	0012e293          	ori	t0,t0,1
E:/桌面文件/chelouxietong/EVT/EXAM/SRC/Startup/startup_CH573.S:160
	csrw mtvec, t0
     9aa:	30529073          	csrw	mtvec,t0
E:/桌面文件/chelouxietong/EVT/EXAM/SRC/Startup/startup_CH573.S:161
	la t0, main
     9ae:	00000297          	auipc	t0,0x0
     9b2:	0da28293          	addi	t0,t0,218 # a88 <main>
E:/桌面文件/chelouxietong/EVT/EXAM/SRC/Startup/startup_CH573.S:162
	csrw mepc, t0
     9b6:	34129073          	csrw	mepc,t0
E:/桌面文件/chelouxietong/EVT/EXAM/SRC/Startup/startup_CH573.S:169
	/* enable vector relocation
	li t0, 0xE000ED14
	li t1, 1
	sw t1, 0(t0)*/
	
	mret
     9ba:	30200073          	mret

000009be <memset>:
memset():
     9be:	433d                	li	t1,15
     9c0:	872a                	mv	a4,a0
     9c2:	02c37363          	bgeu	t1,a2,9e8 <memset+0x2a>
     9c6:	00f77793          	andi	a5,a4,15
     9ca:	efbd                	bnez	a5,a48 <memset+0x8a>
     9cc:	e5ad                	bnez	a1,a36 <memset+0x78>
     9ce:	ff067693          	andi	a3,a2,-16
     9d2:	8a3d                	andi	a2,a2,15
     9d4:	96ba                	add	a3,a3,a4
     9d6:	c30c                	sw	a1,0(a4)
     9d8:	c34c                	sw	a1,4(a4)
     9da:	c70c                	sw	a1,8(a4)
     9dc:	c74c                	sw	a1,12(a4)
     9de:	0741                	addi	a4,a4,16
     9e0:	fed76be3          	bltu	a4,a3,9d6 <memset+0x18>
     9e4:	e211                	bnez	a2,9e8 <memset+0x2a>
     9e6:	8082                	ret
     9e8:	40c306b3          	sub	a3,t1,a2
     9ec:	068a                	slli	a3,a3,0x2
     9ee:	00000297          	auipc	t0,0x0
     9f2:	9696                	add	a3,a3,t0
     9f4:	00a68067          	jr	10(a3)
     9f8:	00b70723          	sb	a1,14(a4) # 7800e <_data_lma+0x75d62>
     9fc:	00b706a3          	sb	a1,13(a4)
     a00:	00b70623          	sb	a1,12(a4)
     a04:	00b705a3          	sb	a1,11(a4)
     a08:	00b70523          	sb	a1,10(a4)
     a0c:	00b704a3          	sb	a1,9(a4)
     a10:	00b70423          	sb	a1,8(a4)
     a14:	00b703a3          	sb	a1,7(a4)
     a18:	00b70323          	sb	a1,6(a4)
     a1c:	00b702a3          	sb	a1,5(a4)
     a20:	00b70223          	sb	a1,4(a4)
     a24:	00b701a3          	sb	a1,3(a4)
     a28:	00b70123          	sb	a1,2(a4)
     a2c:	00b700a3          	sb	a1,1(a4)
     a30:	00b70023          	sb	a1,0(a4)
     a34:	8082                	ret
     a36:	0ff5f593          	andi	a1,a1,255
     a3a:	00859693          	slli	a3,a1,0x8
     a3e:	8dd5                	or	a1,a1,a3
     a40:	01059693          	slli	a3,a1,0x10
     a44:	8dd5                	or	a1,a1,a3
     a46:	b761                	j	9ce <memset+0x10>
     a48:	00279693          	slli	a3,a5,0x2
     a4c:	00000297          	auipc	t0,0x0
     a50:	9696                	add	a3,a3,t0
     a52:	8286                	mv	t0,ra
     a54:	fa8680e7          	jalr	-88(a3)
     a58:	8096                	mv	ra,t0
     a5a:	17c1                	addi	a5,a5,-16
     a5c:	8f1d                	sub	a4,a4,a5
     a5e:	963e                	add	a2,a2,a5
     a60:	f8c374e3          	bgeu	t1,a2,9e8 <memset+0x2a>
     a64:	b7a5                	j	9cc <memset+0xe>

00000a66 <DebugInit>:
DebugInit():
E:\桌面文件\chelouxietong\EVT\EXAM\PM\obj/../src/Main.c:29
    GPIOA_SetBits(GPIO_Pin_9);
     a66:	40001737          	lui	a4,0x40001
     a6a:	0a872783          	lw	a5,168(a4) # 400010a8 <_eusrstack+0x1fff90a8>
E:\桌面文件\chelouxietong\EVT\EXAM\PM\obj/../src/Main.c:28
{
     a6e:	1141                	addi	sp,sp,-16
     a70:	c606                	sw	ra,12(sp)
E:\桌面文件\chelouxietong\EVT\EXAM\PM\obj/../src/Main.c:29
    GPIOA_SetBits(GPIO_Pin_9);
     a72:	2007e793          	ori	a5,a5,512
     a76:	0af72423          	sw	a5,168(a4)
E:\桌面文件\chelouxietong\EVT\EXAM\PM\obj/../src/Main.c:30
    GPIOA_ModeCfg(GPIO_Pin_9, GPIO_ModeOut_PP_5mA);
     a7a:	458d                	li	a1,3
     a7c:	20000513          	li	a0,512
     a80:	2241                	jal	c00 <GPIOA_ModeCfg>
E:\桌面文件\chelouxietong\EVT\EXAM\PM\obj/../src/Main.c:32
}
     a82:	40b2                	lw	ra,12(sp)
     a84:	0141                	addi	sp,sp,16
E:\桌面文件\chelouxietong\EVT\EXAM\PM\obj/../src/Main.c:31
    UART1_DefInit();
     a86:	a9a9                	j	ee0 <UART1_DefInit>

00000a88 <main>:
main():
E:\桌面文件\chelouxietong\EVT\EXAM\PM\obj/../src/Main.c:42
{
     a88:	1141                	addi	sp,sp,-16
E:\桌面文件\chelouxietong\EVT\EXAM\PM\obj/../src/Main.c:43
    SetSysClock(CLK_SOURCE_PLL_60MHz);
     a8a:	04800513          	li	a0,72
E:\桌面文件\chelouxietong\EVT\EXAM\PM\obj/../src/Main.c:42
{
     a8e:	c606                	sw	ra,12(sp)
E:\桌面文件\chelouxietong\EVT\EXAM\PM\obj/../src/Main.c:43
    SetSysClock(CLK_SOURCE_PLL_60MHz);
     a90:	20003097          	auipc	ra,0x20003
     a94:	0f4080e7          	jalr	244(ra) # 20003b84 <SetSysClock>
E:\桌面文件\chelouxietong\EVT\EXAM\PM\obj/../src/Main.c:45
    GPIOA_ModeCfg(GPIO_Pin_All, GPIO_ModeIN_PU);
     a98:	4585                	li	a1,1
     a9a:	557d                	li	a0,-1
     a9c:	2295                	jal	c00 <GPIOA_ModeCfg>
E:\桌面文件\chelouxietong\EVT\EXAM\PM\obj/../src/Main.c:46
    GPIOB_ModeCfg(GPIO_Pin_All, GPIO_ModeIN_PU);
     a9e:	4585                	li	a1,1
     aa0:	557d                	li	a0,-1
     aa2:	2411                	jal	ca6 <GPIOB_ModeCfg>
E:\桌面文件\chelouxietong\EVT\EXAM\PM\obj/../src/Main.c:49
    DebugInit();
     aa4:	37c9                	jal	a66 <DebugInit>
E:\桌面文件\chelouxietong\EVT\EXAM\PM\obj/../src/Main.c:50
    PRINT("Start @ChipID=%02x\n", R8_CHIP_ID);
     aa6:	400017b7          	lui	a5,0x40001
     aaa:	0417c583          	lbu	a1,65(a5) # 40001041 <_eusrstack+0x1fff9041>
     aae:	00001517          	auipc	a0,0x1
     ab2:	6c250513          	addi	a0,a0,1730 # 2170 <_sbrk+0x22>
     ab6:	29b1                	jal	f12 <iprintf>
E:\桌面文件\chelouxietong\EVT\EXAM\PM\obj/../src/Main.c:51
    DelayMs(200);
     ab8:	0c800513          	li	a0,200
     abc:	20003097          	auipc	ra,0x20003
     ac0:	248080e7          	jalr	584(ra) # 20003d04 <mDelaymS>
E:\桌面文件\chelouxietong\EVT\EXAM\PM\obj/../src/Main.c:55
    GPIOA_ModeCfg(GPIO_Pin_5, GPIO_ModeIN_PU);
     ac4:	4585                	li	a1,1
     ac6:	02000513          	li	a0,32
     aca:	2a1d                	jal	c00 <GPIOA_ModeCfg>
E:\桌面文件\chelouxietong\EVT\EXAM\PM\obj/../src/Main.c:56
    GPIOA_ITModeCfg(GPIO_Pin_5, GPIO_ITMode_FallEdge); // 下降沿唤醒
     acc:	4589                	li	a1,2
     ace:	02000513          	li	a0,32
     ad2:	2cad                	jal	d4c <GPIOA_ITModeCfg>
PFIC_EnableIRQ():
E:\桌面文件\chelouxietong\EVT\EXAM\SRC\RVMSIS/core_riscv.h:99
    PFIC->IENR[((uint32_t)(IRQn) >> 5)] = (1 << ((uint32_t)(IRQn)&0x1F));
     ad4:	e000e7b7          	lui	a5,0xe000e
     ad8:	00020737          	lui	a4,0x20
     adc:	10e7a023          	sw	a4,256(a5) # e000e100 <_eusrstack+0xc0006100>
main():
E:\桌面文件\chelouxietong\EVT\EXAM\PM\obj/../src/Main.c:58
    PWR_PeriphWakeUpCfg(ENABLE, RB_SLP_GPIO_WAKE, Edge_LongDelay);
     ae0:	4601                	li	a2,0
     ae2:	45c1                	li	a1,16
     ae4:	4505                	li	a0,1
     ae6:	24e5                	jal	dce <PWR_PeriphWakeUpCfg>
E:\桌面文件\chelouxietong\EVT\EXAM\PM\obj/../src/Main.c:62
    PRINT("IDLE mode sleep \n");
     ae8:	00001517          	auipc	a0,0x1
     aec:	69c50513          	addi	a0,a0,1692 # 2184 <_sbrk+0x36>
     af0:	2381                	jal	1030 <puts>
E:\桌面文件\chelouxietong\EVT\EXAM\PM\obj/../src/Main.c:63
    DelayMs(1);
     af2:	4505                	li	a0,1
     af4:	20003097          	auipc	ra,0x20003
     af8:	210080e7          	jalr	528(ra) # 20003d04 <mDelaymS>
E:\桌面文件\chelouxietong\EVT\EXAM\PM\obj/../src/Main.c:64
    LowPower_Idle();
     afc:	20003097          	auipc	ra,0x20003
     b00:	dd0080e7          	jalr	-560(ra) # 200038cc <LowPower_Idle>
E:\桌面文件\chelouxietong\EVT\EXAM\PM\obj/../src/Main.c:65
    PRINT("wake.. \n");
     b04:	00001517          	auipc	a0,0x1
     b08:	69450513          	addi	a0,a0,1684 # 2198 <_sbrk+0x4a>
     b0c:	2315                	jal	1030 <puts>
E:\桌面文件\chelouxietong\EVT\EXAM\PM\obj/../src/Main.c:66
    DelayMs(500);
     b0e:	1f400513          	li	a0,500
     b12:	20003097          	auipc	ra,0x20003
     b16:	1f2080e7          	jalr	498(ra) # 20003d04 <mDelaymS>
E:\桌面文件\chelouxietong\EVT\EXAM\PM\obj/../src/Main.c:70
    PRINT("Halt mode sleep \n");
     b1a:	00001517          	auipc	a0,0x1
     b1e:	68650513          	addi	a0,a0,1670 # 21a0 <_sbrk+0x52>
     b22:	2339                	jal	1030 <puts>
E:\桌面文件\chelouxietong\EVT\EXAM\PM\obj/../src/Main.c:71
    DelayMs(2);
     b24:	4509                	li	a0,2
     b26:	20003097          	auipc	ra,0x20003
     b2a:	1de080e7          	jalr	478(ra) # 20003d04 <mDelaymS>
E:\桌面文件\chelouxietong\EVT\EXAM\PM\obj/../src/Main.c:72
    LowPower_Halt();
     b2e:	20003097          	auipc	ra,0x20003
     b32:	ddc080e7          	jalr	-548(ra) # 2000390a <LowPower_Halt>
E:\桌面文件\chelouxietong\EVT\EXAM\PM\obj/../src/Main.c:73
    HSECFG_Current(HSE_RCur_100); // 降为额定电流(低功耗函数中提升了HSE偏置电流)
     b36:	4505                	li	a0,1
     b38:	2879                	jal	bd6 <HSECFG_Current>
E:\桌面文件\chelouxietong\EVT\EXAM\PM\obj/../src/Main.c:74
    DelayMs(2);
     b3a:	4509                	li	a0,2
     b3c:	20003097          	auipc	ra,0x20003
     b40:	1c8080e7          	jalr	456(ra) # 20003d04 <mDelaymS>
E:\桌面文件\chelouxietong\EVT\EXAM\PM\obj/../src/Main.c:75
    PRINT("wake.. \n");
     b44:	00001517          	auipc	a0,0x1
     b48:	65450513          	addi	a0,a0,1620 # 2198 <_sbrk+0x4a>
     b4c:	21d5                	jal	1030 <puts>
E:\桌面文件\chelouxietong\EVT\EXAM\PM\obj/../src/Main.c:76
    DelayMs(500);
     b4e:	1f400513          	li	a0,500
     b52:	20003097          	auipc	ra,0x20003
     b56:	1b2080e7          	jalr	434(ra) # 20003d04 <mDelaymS>
E:\桌面文件\chelouxietong\EVT\EXAM\PM\obj/../src/Main.c:80
    PRINT("sleep mode sleep \n");
     b5a:	00001517          	auipc	a0,0x1
     b5e:	65a50513          	addi	a0,a0,1626 # 21b4 <_sbrk+0x66>
     b62:	21f9                	jal	1030 <puts>
E:\桌面文件\chelouxietong\EVT\EXAM\PM\obj/../src/Main.c:81
    DelayMs(2);
     b64:	4509                	li	a0,2
     b66:	20003097          	auipc	ra,0x20003
     b6a:	19e080e7          	jalr	414(ra) # 20003d04 <mDelaymS>
E:\桌面文件\chelouxietong\EVT\EXAM\PM\obj/../src/Main.c:82
    LowPower_Sleep(RB_PWR_RAM16K | RB_PWR_RAM2K); //只保留14+2K SRAM 供电
     b6e:	4549                	li	a0,18
     b70:	20003097          	auipc	ra,0x20003
     b74:	e56080e7          	jalr	-426(ra) # 200039c6 <LowPower_Sleep>
E:\桌面文件\chelouxietong\EVT\EXAM\PM\obj/../src/Main.c:83
    HSECFG_Current(HSE_RCur_100);                 // 降为额定电流(低功耗函数中提升了HSE偏置电流)
     b78:	4505                	li	a0,1
     b7a:	28b1                	jal	bd6 <HSECFG_Current>
E:\桌面文件\chelouxietong\EVT\EXAM\PM\obj/../src/Main.c:84
    DelayMs(5);
     b7c:	4515                	li	a0,5
     b7e:	20003097          	auipc	ra,0x20003
     b82:	186080e7          	jalr	390(ra) # 20003d04 <mDelaymS>
E:\桌面文件\chelouxietong\EVT\EXAM\PM\obj/../src/Main.c:85
    PRINT("wake.. \n");
     b86:	00001517          	auipc	a0,0x1
     b8a:	61250513          	addi	a0,a0,1554 # 2198 <_sbrk+0x4a>
     b8e:	214d                	jal	1030 <puts>
E:\桌面文件\chelouxietong\EVT\EXAM\PM\obj/../src/Main.c:86
    DelayMs(500);
     b90:	1f400513          	li	a0,500
     b94:	20003097          	auipc	ra,0x20003
     b98:	170080e7          	jalr	368(ra) # 20003d04 <mDelaymS>
E:\桌面文件\chelouxietong\EVT\EXAM\PM\obj/../src/Main.c:90
    PRINT("shut down mode sleep \n");
     b9c:	00001517          	auipc	a0,0x1
     ba0:	62c50513          	addi	a0,a0,1580 # 21c8 <_sbrk+0x7a>
     ba4:	2171                	jal	1030 <puts>
E:\桌面文件\chelouxietong\EVT\EXAM\PM\obj/../src/Main.c:91
    DelayMs(2);
     ba6:	4509                	li	a0,2
     ba8:	20003097          	auipc	ra,0x20003
     bac:	15c080e7          	jalr	348(ra) # 20003d04 <mDelaymS>
E:\桌面文件\chelouxietong\EVT\EXAM\PM\obj/../src/Main.c:92
    LowPower_Shutdown(0); //全部断电，唤醒后复位
     bb0:	4501                	li	a0,0
     bb2:	20003097          	auipc	ra,0x20003
     bb6:	f04080e7          	jalr	-252(ra) # 20003ab6 <LowPower_Shutdown>
E:\桌面文件\chelouxietong\EVT\EXAM\PM\obj/../src/Main.c:97
    HSECFG_Current(HSE_RCur_100); // 降为额定电流(低功耗函数中提升了HSE偏置电流)
     bba:	4505                	li	a0,1
     bbc:	2829                	jal	bd6 <HSECFG_Current>
E:\桌面文件\chelouxietong\EVT\EXAM\PM\obj/../src/Main.c:98
    PRINT("wake.. \n");
     bbe:	00001517          	auipc	a0,0x1
     bc2:	5da50513          	addi	a0,a0,1498 # 2198 <_sbrk+0x4a>
     bc6:	21ad                	jal	1030 <puts>
E:\桌面文件\chelouxietong\EVT\EXAM\PM\obj/../src/Main.c:99
    DelayMs(500);
     bc8:	1f400513          	li	a0,500
     bcc:	20003097          	auipc	ra,0x20003
     bd0:	138080e7          	jalr	312(ra) # 20003d04 <mDelaymS>
E:\桌面文件\chelouxietong\EVT\EXAM\PM\obj/../src/Main.c:102 (discriminator 1)
    while(1);
     bd4:	a001                	j	bd4 <main+0x14c>

00000bd6 <HSECFG_Current>:
HSECFG_Current():
E:/桌面文件/chelouxietong/EVT/EXAM/SRC/StdPeriphDriver/CH57x_clk.c:58
 */
void HSECFG_Current(HSECurrentTypeDef c)
{
    uint8_t x32M_c;

    x32M_c = R8_XT32M_TUNE;
     bd6:	400017b7          	lui	a5,0x40001
     bda:	04e7c703          	lbu	a4,78(a5) # 4000104e <_eusrstack+0x1fff904e>
sys_safe_access_enable():
E:\桌面文件\chelouxietong\EVT\EXAM\SRC\StdPeriphDriver\inc/CH57x_sys.h:178
    R8_SAFE_ACCESS_SIG = SAFE_ACCESS_SIG1;
     bde:	05700693          	li	a3,87
     be2:	04d78023          	sb	a3,64(a5)
HSECFG_Current():
E:/桌面文件/chelouxietong/EVT/EXAM/SRC/StdPeriphDriver/CH57x_clk.c:59
    x32M_c = (x32M_c & 0xfc) | (c & 0x03);
     be6:	0fc77713          	andi	a4,a4,252
     bea:	890d                	andi	a0,a0,3
sys_safe_access_enable():
E:\桌面文件\chelouxietong\EVT\EXAM\SRC\StdPeriphDriver\inc/CH57x_sys.h:179
    R8_SAFE_ACCESS_SIG = SAFE_ACCESS_SIG2;
     bec:	fa800693          	li	a3,-88
     bf0:	04d78023          	sb	a3,64(a5)
HSECFG_Current():
E:/桌面文件/chelouxietong/EVT/EXAM/SRC/StdPeriphDriver/CH57x_clk.c:59
     bf4:	8f49                	or	a4,a4,a0
E:/桌面文件/chelouxietong/EVT/EXAM/SRC/StdPeriphDriver/CH57x_clk.c:62

    sys_safe_access_enable();
    R8_XT32M_TUNE = x32M_c;
     bf6:	04e78723          	sb	a4,78(a5)
sys_safe_access_disable():
E:\桌面文件\chelouxietong\EVT\EXAM\SRC\StdPeriphDriver\inc/CH57x_sys.h:184
    R8_SAFE_ACCESS_SIG = 0;
     bfa:	04078023          	sb	zero,64(a5)
HSECFG_Current():
E:/桌面文件/chelouxietong/EVT/EXAM/SRC/StdPeriphDriver/CH57x_clk.c:64
    sys_safe_access_disable();
}
     bfe:	8082                	ret

00000c00 <GPIOA_ModeCfg>:
GPIOA_ModeCfg():
E:/桌面文件/chelouxietong/EVT/EXAM/SRC/StdPeriphDriver/CH57x_gpio.c:27
 *
 * @return  none
 */
void GPIOA_ModeCfg(uint32_t pin, GPIOModeTypeDef mode)
{
    switch(mode)
     c00:	4791                	li	a5,4
     c02:	02b7ee63          	bltu	a5,a1,c3e <GPIOA_ModeCfg+0x3e>
     c06:	00001717          	auipc	a4,0x1
     c0a:	5da70713          	addi	a4,a4,1498 # 21e0 <_sbrk+0x92>
     c0e:	058a                	slli	a1,a1,0x2
     c10:	95ba                	add	a1,a1,a4
     c12:	419c                	lw	a5,0(a1)
     c14:	97ba                	add	a5,a5,a4
     c16:	8782                	jr	a5
E:/桌面文件/chelouxietong/EVT/EXAM/SRC/StdPeriphDriver/CH57x_gpio.c:30
    {
        case GPIO_ModeIN_Floating:
            R32_PA_PD_DRV &= ~pin;
     c18:	400017b7          	lui	a5,0x40001
     c1c:	0b47a703          	lw	a4,180(a5) # 400010b4 <_eusrstack+0x1fff90b4>
     c20:	fff54513          	not	a0,a0
     c24:	8f69                	and	a4,a4,a0
     c26:	0ae7aa23          	sw	a4,180(a5)
E:/桌面文件/chelouxietong/EVT/EXAM/SRC/StdPeriphDriver/CH57x_gpio.c:31
            R32_PA_PU &= ~pin;
     c2a:	0b07a703          	lw	a4,176(a5)
E:/桌面文件/chelouxietong/EVT/EXAM/SRC/StdPeriphDriver/CH57x_gpio.c:43
            R32_PA_DIR &= ~pin;
            break;

        case GPIO_ModeIN_PD:
            R32_PA_PD_DRV |= pin;
            R32_PA_PU &= ~pin;
     c2e:	8f69                	and	a4,a4,a0
     c30:	0ae7a823          	sw	a4,176(a5)
E:/桌面文件/chelouxietong/EVT/EXAM/SRC/StdPeriphDriver/CH57x_gpio.c:44
            R32_PA_DIR &= ~pin;
     c34:	0a07a703          	lw	a4,160(a5)
     c38:	8d79                	and	a0,a0,a4
E:/桌面文件/chelouxietong/EVT/EXAM/SRC/StdPeriphDriver/CH57x_gpio.c:54
            R32_PA_DIR |= pin;
            break;

        case GPIO_ModeOut_PP_20mA:
            R32_PA_PD_DRV |= pin;
            R32_PA_DIR |= pin;
     c3a:	0aa7a023          	sw	a0,160(a5)
E:/桌面文件/chelouxietong/EVT/EXAM/SRC/StdPeriphDriver/CH57x_gpio.c:60
            break;

        default:
            break;
    }
}
     c3e:	8082                	ret
E:/桌面文件/chelouxietong/EVT/EXAM/SRC/StdPeriphDriver/CH57x_gpio.c:36
            R32_PA_PD_DRV &= ~pin;
     c40:	400017b7          	lui	a5,0x40001
     c44:	0b47a683          	lw	a3,180(a5) # 400010b4 <_eusrstack+0x1fff90b4>
     c48:	fff54713          	not	a4,a0
     c4c:	8ef9                	and	a3,a3,a4
     c4e:	0ad7aa23          	sw	a3,180(a5)
E:/桌面文件/chelouxietong/EVT/EXAM/SRC/StdPeriphDriver/CH57x_gpio.c:37
            R32_PA_PU |= pin;
     c52:	0b07a683          	lw	a3,176(a5)
     c56:	8d55                	or	a0,a0,a3
     c58:	0aa7a823          	sw	a0,176(a5)
E:/桌面文件/chelouxietong/EVT/EXAM/SRC/StdPeriphDriver/CH57x_gpio.c:38
            R32_PA_DIR &= ~pin;
     c5c:	0a07a683          	lw	a3,160(a5)
     c60:	8f75                	and	a4,a4,a3
     c62:	0ae7a023          	sw	a4,160(a5)
E:/桌面文件/chelouxietong/EVT/EXAM/SRC/StdPeriphDriver/CH57x_gpio.c:39
            break;
     c66:	8082                	ret
E:/桌面文件/chelouxietong/EVT/EXAM/SRC/StdPeriphDriver/CH57x_gpio.c:42
            R32_PA_PD_DRV |= pin;
     c68:	400017b7          	lui	a5,0x40001
     c6c:	0b47a703          	lw	a4,180(a5) # 400010b4 <_eusrstack+0x1fff90b4>
     c70:	8f49                	or	a4,a4,a0
     c72:	0ae7aa23          	sw	a4,180(a5)
E:/桌面文件/chelouxietong/EVT/EXAM/SRC/StdPeriphDriver/CH57x_gpio.c:43
            R32_PA_PU &= ~pin;
     c76:	0b07a703          	lw	a4,176(a5)
     c7a:	fff54513          	not	a0,a0
     c7e:	bf45                	j	c2e <GPIOA_ModeCfg+0x2e>
E:/桌面文件/chelouxietong/EVT/EXAM/SRC/StdPeriphDriver/CH57x_gpio.c:48
            R32_PA_PD_DRV &= ~pin;
     c80:	400017b7          	lui	a5,0x40001
     c84:	0b47a683          	lw	a3,180(a5) # 400010b4 <_eusrstack+0x1fff90b4>
     c88:	fff54713          	not	a4,a0
     c8c:	8f75                	and	a4,a4,a3
E:/桌面文件/chelouxietong/EVT/EXAM/SRC/StdPeriphDriver/CH57x_gpio.c:53
            R32_PA_PD_DRV |= pin;
     c8e:	0ae7aa23          	sw	a4,180(a5)
E:/桌面文件/chelouxietong/EVT/EXAM/SRC/StdPeriphDriver/CH57x_gpio.c:54
            R32_PA_DIR |= pin;
     c92:	0a07a703          	lw	a4,160(a5)
     c96:	8d59                	or	a0,a0,a4
     c98:	b74d                	j	c3a <GPIOA_ModeCfg+0x3a>
E:/桌面文件/chelouxietong/EVT/EXAM/SRC/StdPeriphDriver/CH57x_gpio.c:53
            R32_PA_PD_DRV |= pin;
     c9a:	400017b7          	lui	a5,0x40001
     c9e:	0b47a703          	lw	a4,180(a5) # 400010b4 <_eusrstack+0x1fff90b4>
     ca2:	8f49                	or	a4,a4,a0
     ca4:	b7ed                	j	c8e <GPIOA_ModeCfg+0x8e>

00000ca6 <GPIOB_ModeCfg>:
GPIOB_ModeCfg():
E:/桌面文件/chelouxietong/EVT/EXAM/SRC/StdPeriphDriver/CH57x_gpio.c:74
 *
 * @return  none
 */
void GPIOB_ModeCfg(uint32_t pin, GPIOModeTypeDef mode)
{
    switch(mode)
     ca6:	4791                	li	a5,4
     ca8:	02b7ee63          	bltu	a5,a1,ce4 <GPIOB_ModeCfg+0x3e>
     cac:	00001717          	auipc	a4,0x1
     cb0:	54870713          	addi	a4,a4,1352 # 21f4 <_sbrk+0xa6>
     cb4:	058a                	slli	a1,a1,0x2
     cb6:	95ba                	add	a1,a1,a4
     cb8:	419c                	lw	a5,0(a1)
     cba:	97ba                	add	a5,a5,a4
     cbc:	8782                	jr	a5
E:/桌面文件/chelouxietong/EVT/EXAM/SRC/StdPeriphDriver/CH57x_gpio.c:77
    {
        case GPIO_ModeIN_Floating:
            R32_PB_PD_DRV &= ~pin;
     cbe:	400017b7          	lui	a5,0x40001
     cc2:	0d47a703          	lw	a4,212(a5) # 400010d4 <_eusrstack+0x1fff90d4>
     cc6:	fff54513          	not	a0,a0
     cca:	8f69                	and	a4,a4,a0
     ccc:	0ce7aa23          	sw	a4,212(a5)
E:/桌面文件/chelouxietong/EVT/EXAM/SRC/StdPeriphDriver/CH57x_gpio.c:78
            R32_PB_PU &= ~pin;
     cd0:	0d07a703          	lw	a4,208(a5)
E:/桌面文件/chelouxietong/EVT/EXAM/SRC/StdPeriphDriver/CH57x_gpio.c:90
            R32_PB_DIR &= ~pin;
            break;

        case GPIO_ModeIN_PD:
            R32_PB_PD_DRV |= pin;
            R32_PB_PU &= ~pin;
     cd4:	8f69                	and	a4,a4,a0
     cd6:	0ce7a823          	sw	a4,208(a5)
E:/桌面文件/chelouxietong/EVT/EXAM/SRC/StdPeriphDriver/CH57x_gpio.c:91
            R32_PB_DIR &= ~pin;
     cda:	0c07a703          	lw	a4,192(a5)
     cde:	8d79                	and	a0,a0,a4
E:/桌面文件/chelouxietong/EVT/EXAM/SRC/StdPeriphDriver/CH57x_gpio.c:101
            R32_PB_DIR |= pin;
            break;

        case GPIO_ModeOut_PP_20mA:
            R32_PB_PD_DRV |= pin;
            R32_PB_DIR |= pin;
     ce0:	0ca7a023          	sw	a0,192(a5)
E:/桌面文件/chelouxietong/EVT/EXAM/SRC/StdPeriphDriver/CH57x_gpio.c:107
            break;

        default:
            break;
    }
}
     ce4:	8082                	ret
E:/桌面文件/chelouxietong/EVT/EXAM/SRC/StdPeriphDriver/CH57x_gpio.c:83
            R32_PB_PD_DRV &= ~pin;
     ce6:	400017b7          	lui	a5,0x40001
     cea:	0d47a683          	lw	a3,212(a5) # 400010d4 <_eusrstack+0x1fff90d4>
     cee:	fff54713          	not	a4,a0
     cf2:	8ef9                	and	a3,a3,a4
     cf4:	0cd7aa23          	sw	a3,212(a5)
E:/桌面文件/chelouxietong/EVT/EXAM/SRC/StdPeriphDriver/CH57x_gpio.c:84
            R32_PB_PU |= pin;
     cf8:	0d07a683          	lw	a3,208(a5)
     cfc:	8d55                	or	a0,a0,a3
     cfe:	0ca7a823          	sw	a0,208(a5)
E:/桌面文件/chelouxietong/EVT/EXAM/SRC/StdPeriphDriver/CH57x_gpio.c:85
            R32_PB_DIR &= ~pin;
     d02:	0c07a683          	lw	a3,192(a5)
     d06:	8f75                	and	a4,a4,a3
     d08:	0ce7a023          	sw	a4,192(a5)
E:/桌面文件/chelouxietong/EVT/EXAM/SRC/StdPeriphDriver/CH57x_gpio.c:86
            break;
     d0c:	8082                	ret
E:/桌面文件/chelouxietong/EVT/EXAM/SRC/StdPeriphDriver/CH57x_gpio.c:89
            R32_PB_PD_DRV |= pin;
     d0e:	400017b7          	lui	a5,0x40001
     d12:	0d47a703          	lw	a4,212(a5) # 400010d4 <_eusrstack+0x1fff90d4>
     d16:	8f49                	or	a4,a4,a0
     d18:	0ce7aa23          	sw	a4,212(a5)
E:/桌面文件/chelouxietong/EVT/EXAM/SRC/StdPeriphDriver/CH57x_gpio.c:90
            R32_PB_PU &= ~pin;
     d1c:	0d07a703          	lw	a4,208(a5)
     d20:	fff54513          	not	a0,a0
     d24:	bf45                	j	cd4 <GPIOB_ModeCfg+0x2e>
E:/桌面文件/chelouxietong/EVT/EXAM/SRC/StdPeriphDriver/CH57x_gpio.c:95
            R32_PB_PD_DRV &= ~pin;
     d26:	400017b7          	lui	a5,0x40001
     d2a:	0d47a683          	lw	a3,212(a5) # 400010d4 <_eusrstack+0x1fff90d4>
     d2e:	fff54713          	not	a4,a0
     d32:	8f75                	and	a4,a4,a3
E:/桌面文件/chelouxietong/EVT/EXAM/SRC/StdPeriphDriver/CH57x_gpio.c:100
            R32_PB_PD_DRV |= pin;
     d34:	0ce7aa23          	sw	a4,212(a5)
E:/桌面文件/chelouxietong/EVT/EXAM/SRC/StdPeriphDriver/CH57x_gpio.c:101
            R32_PB_DIR |= pin;
     d38:	0c07a703          	lw	a4,192(a5)
     d3c:	8d59                	or	a0,a0,a4
     d3e:	b74d                	j	ce0 <GPIOB_ModeCfg+0x3a>
E:/桌面文件/chelouxietong/EVT/EXAM/SRC/StdPeriphDriver/CH57x_gpio.c:100
            R32_PB_PD_DRV |= pin;
     d40:	400017b7          	lui	a5,0x40001
     d44:	0d47a703          	lw	a4,212(a5) # 400010d4 <_eusrstack+0x1fff90d4>
     d48:	8f49                	or	a4,a4,a0
     d4a:	b7ed                	j	d34 <GPIOB_ModeCfg+0x8e>

00000d4c <GPIOA_ITModeCfg>:
GPIOA_ITModeCfg():
E:/桌面文件/chelouxietong/EVT/EXAM/SRC/StdPeriphDriver/CH57x_gpio.c:121
 *
 * @return  none
 */
void GPIOA_ITModeCfg(uint32_t pin, GPIOITModeTpDef mode)
{
    switch(mode)
     d4c:	01051793          	slli	a5,a0,0x10
     d50:	4705                	li	a4,1
     d52:	83c1                	srli	a5,a5,0x10
     d54:	04e58263          	beq	a1,a4,d98 <GPIOA_ITModeCfg+0x4c>
     d58:	c18d                	beqz	a1,d7a <GPIOA_ITModeCfg+0x2e>
     d5a:	4709                	li	a4,2
     d5c:	04e58d63          	beq	a1,a4,db6 <GPIOA_ITModeCfg+0x6a>
     d60:	470d                	li	a4,3
     d62:	06e58063          	beq	a1,a4,dc2 <GPIOA_ITModeCfg+0x76>
E:/桌面文件/chelouxietong/EVT/EXAM/SRC/StdPeriphDriver/CH57x_gpio.c:146
            break;

        default:
            break;
    }
    R16_PA_INT_IF = pin;
     d66:	40001737          	lui	a4,0x40001
     d6a:	08f71e23          	sh	a5,156(a4) # 4000109c <_eusrstack+0x1fff909c>
E:/桌面文件/chelouxietong/EVT/EXAM/SRC/StdPeriphDriver/CH57x_gpio.c:147
    R16_PA_INT_EN |= pin;
     d6e:	09075683          	lhu	a3,144(a4)
     d72:	8fd5                	or	a5,a5,a3
     d74:	08f71823          	sh	a5,144(a4)
E:/桌面文件/chelouxietong/EVT/EXAM/SRC/StdPeriphDriver/CH57x_gpio.c:148
}
     d78:	8082                	ret
E:/桌面文件/chelouxietong/EVT/EXAM/SRC/StdPeriphDriver/CH57x_gpio.c:124
            R16_PA_INT_MODE &= ~pin;
     d7a:	40001737          	lui	a4,0x40001
     d7e:	09475603          	lhu	a2,148(a4) # 40001094 <_eusrstack+0x1fff9094>
     d82:	fff7c693          	not	a3,a5
     d86:	8ef1                	and	a3,a3,a2
E:/桌面文件/chelouxietong/EVT/EXAM/SRC/StdPeriphDriver/CH57x_gpio.c:134
            R16_PA_INT_MODE |= pin;
     d88:	08d71a23          	sh	a3,148(a4)
E:/桌面文件/chelouxietong/EVT/EXAM/SRC/StdPeriphDriver/CH57x_gpio.c:135
            R32_PA_CLR |= pin;
     d8c:	0ac72683          	lw	a3,172(a4)
     d90:	8d55                	or	a0,a0,a3
     d92:	0aa72623          	sw	a0,172(a4)
E:/桌面文件/chelouxietong/EVT/EXAM/SRC/StdPeriphDriver/CH57x_gpio.c:136
            break;
     d96:	bfc1                	j	d66 <GPIOA_ITModeCfg+0x1a>
E:/桌面文件/chelouxietong/EVT/EXAM/SRC/StdPeriphDriver/CH57x_gpio.c:129
            R16_PA_INT_MODE &= ~pin;
     d98:	40001737          	lui	a4,0x40001
     d9c:	09475603          	lhu	a2,148(a4) # 40001094 <_eusrstack+0x1fff9094>
     da0:	fff7c693          	not	a3,a5
     da4:	8ef1                	and	a3,a3,a2
E:/桌面文件/chelouxietong/EVT/EXAM/SRC/StdPeriphDriver/CH57x_gpio.c:139
            R16_PA_INT_MODE |= pin;
     da6:	08d71a23          	sh	a3,148(a4)
E:/桌面文件/chelouxietong/EVT/EXAM/SRC/StdPeriphDriver/CH57x_gpio.c:140
            R32_PA_OUT |= pin;
     daa:	0a872683          	lw	a3,168(a4)
     dae:	8d55                	or	a0,a0,a3
     db0:	0aa72423          	sw	a0,168(a4)
E:/桌面文件/chelouxietong/EVT/EXAM/SRC/StdPeriphDriver/CH57x_gpio.c:141
            break;
     db4:	bf4d                	j	d66 <GPIOA_ITModeCfg+0x1a>
E:/桌面文件/chelouxietong/EVT/EXAM/SRC/StdPeriphDriver/CH57x_gpio.c:134
            R16_PA_INT_MODE |= pin;
     db6:	40001737          	lui	a4,0x40001
     dba:	09475683          	lhu	a3,148(a4) # 40001094 <_eusrstack+0x1fff9094>
     dbe:	8edd                	or	a3,a3,a5
     dc0:	b7e1                	j	d88 <GPIOA_ITModeCfg+0x3c>
E:/桌面文件/chelouxietong/EVT/EXAM/SRC/StdPeriphDriver/CH57x_gpio.c:139
            R16_PA_INT_MODE |= pin;
     dc2:	40001737          	lui	a4,0x40001
     dc6:	09475683          	lhu	a3,148(a4) # 40001094 <_eusrstack+0x1fff9094>
     dca:	8edd                	or	a3,a3,a5
     dcc:	bfe9                	j	da6 <GPIOA_ITModeCfg+0x5a>

00000dce <PWR_PeriphWakeUpCfg>:
PWR_PeriphWakeUpCfg():
E:/桌面文件/chelouxietong/EVT/EXAM/SRC/StdPeriphDriver/CH57x_pwr.c:125
    if(s == DISABLE)
     dce:	e51d                	bnez	a0,dfc <PWR_PeriphWakeUpCfg+0x2e>
sys_safe_access_enable():
E:\桌面文件\chelouxietong\EVT\EXAM\SRC\StdPeriphDriver\inc/CH57x_sys.h:178
    R8_SAFE_ACCESS_SIG = SAFE_ACCESS_SIG1;
     dd0:	400017b7          	lui	a5,0x40001
     dd4:	05700713          	li	a4,87
     dd8:	04e78023          	sb	a4,64(a5) # 40001040 <_eusrstack+0x1fff9040>
E:\桌面文件\chelouxietong\EVT\EXAM\SRC\StdPeriphDriver\inc/CH57x_sys.h:179
    R8_SAFE_ACCESS_SIG = SAFE_ACCESS_SIG2;
     ddc:	fa800713          	li	a4,-88
     de0:	04e78023          	sb	a4,64(a5)
PWR_PeriphWakeUpCfg():
E:/桌面文件/chelouxietong/EVT/EXAM/SRC/StdPeriphDriver/CH57x_pwr.c:128
        R8_SLP_WAKE_CTRL &= ~perph;
     de4:	00e7c703          	lbu	a4,14(a5)
     de8:	fff5c593          	not	a1,a1
     dec:	8df9                	and	a1,a1,a4
E:/桌面文件/chelouxietong/EVT/EXAM/SRC/StdPeriphDriver/CH57x_pwr.c:153
        R8_SLP_WAKE_CTRL |= m | perph;
     dee:	00b78723          	sb	a1,14(a5)
sys_safe_access_disable():
E:\桌面文件\chelouxietong\EVT\EXAM\SRC\StdPeriphDriver\inc/CH57x_sys.h:184
    R8_SAFE_ACCESS_SIG = 0;
     df2:	400017b7          	lui	a5,0x40001
     df6:	04078023          	sb	zero,64(a5) # 40001040 <_eusrstack+0x1fff9040>
PWR_PeriphWakeUpCfg():
E:/桌面文件/chelouxietong/EVT/EXAM/SRC/StdPeriphDriver/CH57x_pwr.c:156
}
     dfa:	8082                	ret
E:/桌面文件/chelouxietong/EVT/EXAM/SRC/StdPeriphDriver/CH57x_pwr.c:132
        switch(mode)
     dfc:	478d                	li	a5,3
E:/桌面文件/chelouxietong/EVT/EXAM/SRC/StdPeriphDriver/CH57x_pwr.c:125
    if(s == DISABLE)
     dfe:	0c000713          	li	a4,192
     e02:	00c7e963          	bltu	a5,a2,e14 <PWR_PeriphWakeUpCfg+0x46>
     e06:	00001797          	auipc	a5,0x1
     e0a:	49e78793          	addi	a5,a5,1182 # 22a4 <CSWTCH.10>
     e0e:	97b2                	add	a5,a5,a2
     e10:	0007c703          	lbu	a4,0(a5)
sys_safe_access_enable():
E:\桌面文件\chelouxietong\EVT\EXAM\SRC\StdPeriphDriver\inc/CH57x_sys.h:178
    R8_SAFE_ACCESS_SIG = SAFE_ACCESS_SIG1;
     e14:	400017b7          	lui	a5,0x40001
     e18:	05700513          	li	a0,87
     e1c:	04a78023          	sb	a0,64(a5) # 40001040 <_eusrstack+0x1fff9040>
E:\桌面文件\chelouxietong\EVT\EXAM\SRC\StdPeriphDriver\inc/CH57x_sys.h:179
    R8_SAFE_ACCESS_SIG = SAFE_ACCESS_SIG2;
     e20:	fa800613          	li	a2,-88
     e24:	04c78023          	sb	a2,64(a5)
PWR_PeriphWakeUpCfg():
E:/桌面文件/chelouxietong/EVT/EXAM/SRC/StdPeriphDriver/CH57x_pwr.c:151
        R8_SLP_WAKE_CTRL &= ~(RB_WAKE_EV_MODE | RB_WAKE_DELAY);
     e28:	00e7c683          	lbu	a3,14(a5)
     e2c:	03f6f693          	andi	a3,a3,63
     e30:	00d78723          	sb	a3,14(a5)
sys_safe_access_enable():
E:\桌面文件\chelouxietong\EVT\EXAM\SRC\StdPeriphDriver\inc/CH57x_sys.h:178
    R8_SAFE_ACCESS_SIG = SAFE_ACCESS_SIG1;
     e34:	04a78023          	sb	a0,64(a5)
E:\桌面文件\chelouxietong\EVT\EXAM\SRC\StdPeriphDriver\inc/CH57x_sys.h:179
    R8_SAFE_ACCESS_SIG = SAFE_ACCESS_SIG2;
     e38:	04c78023          	sb	a2,64(a5)
PWR_PeriphWakeUpCfg():
E:/桌面文件/chelouxietong/EVT/EXAM/SRC/StdPeriphDriver/CH57x_pwr.c:153
        R8_SLP_WAKE_CTRL |= m | perph;
     e3c:	00e7c683          	lbu	a3,14(a5)
     e40:	8dd5                	or	a1,a1,a3
     e42:	8dd9                	or	a1,a1,a4
     e44:	b76d                	j	dee <PWR_PeriphWakeUpCfg+0x20>

00000e46 <GetSysClock>:
GetSysClock():
E:/桌面文件/chelouxietong/EVT/EXAM/SRC/StdPeriphDriver/CH57x_sys.c:94
    rev = R16_CLK_SYS_CFG & 0xff;
     e46:	400017b7          	lui	a5,0x40001
     e4a:	0087d503          	lhu	a0,8(a5) # 40001008 <_eusrstack+0x1fff9008>
     e4e:	0542                	slli	a0,a0,0x10
     e50:	8141                	srli	a0,a0,0x10
E:/桌面文件/chelouxietong/EVT/EXAM/SRC/StdPeriphDriver/CH57x_sys.c:95
    if((rev & 0x40) == (0 << 6))
     e52:	04057793          	andi	a5,a0,64
     e56:	eb91                	bnez	a5,e6a <GetSysClock+0x24>
E:/桌面文件/chelouxietong/EVT/EXAM/SRC/StdPeriphDriver/CH57x_sys.c:97
        return (32000000 / (rev & 0x1f));
     e58:	01f57793          	andi	a5,a0,31
     e5c:	01e85537          	lui	a0,0x1e85
E:/桌面文件/chelouxietong/EVT/EXAM/SRC/StdPeriphDriver/CH57x_sys.c:101
        return (480000000 / (rev & 0x1f));
     e60:	80050513          	addi	a0,a0,-2048 # 1e84800 <_data_lma+0x1e82554>
     e64:	02f54533          	div	a0,a0,a5
     e68:	8082                	ret
E:/桌面文件/chelouxietong/EVT/EXAM/SRC/StdPeriphDriver/CH57x_sys.c:99
    else if((rev & RB_CLK_SYS_MOD) == (1 << 6))
     e6a:	0c057793          	andi	a5,a0,192
     e6e:	04000713          	li	a4,64
     e72:	00e79763          	bne	a5,a4,e80 <GetSysClock+0x3a>
E:/桌面文件/chelouxietong/EVT/EXAM/SRC/StdPeriphDriver/CH57x_sys.c:101
        return (480000000 / (rev & 0x1f));
     e76:	01f57793          	andi	a5,a0,31
     e7a:	1c9c4537          	lui	a0,0x1c9c4
     e7e:	b7cd                	j	e60 <GetSysClock+0x1a>
E:/桌面文件/chelouxietong/EVT/EXAM/SRC/StdPeriphDriver/CH57x_sys.c:105
        return (32000);
     e80:	6521                	lui	a0,0x8
     e82:	d0050513          	addi	a0,a0,-768 # 7d00 <_data_lma+0x5a54>
E:/桌面文件/chelouxietong/EVT/EXAM/SRC/StdPeriphDriver/CH57x_sys.c:107
}
     e86:	8082                	ret

00000e88 <_write>:
_write():
E:/桌面文件/chelouxietong/EVT/EXAM/SRC/StdPeriphDriver/CH57x_sys.c:353

#ifdef DEBUG
int _write(int fd, char *buf, int size)
{
    int i;
    for(i = 0; i < size; i++)
     e88:	4781                	li	a5,0
E:/桌面文件/chelouxietong/EVT/EXAM/SRC/StdPeriphDriver/CH57x_sys.c:359
    {
#if DEBUG == Debug_UART0
        while(R8_UART0_TFC == UART_FIFO_SIZE);                  /* 等待数据发送 */
        R8_UART0_THR = *buf++; /* 发送数据 */
#elif DEBUG == Debug_UART1
        while(R8_UART1_TFC == UART_FIFO_SIZE);                  /* 等待数据发送 */
     e8a:	40003737          	lui	a4,0x40003
     e8e:	46a1                	li	a3,8
E:/桌面文件/chelouxietong/EVT/EXAM/SRC/StdPeriphDriver/CH57x_sys.c:353 (discriminator 1)
    for(i = 0; i < size; i++)
     e90:	00c7c463          	blt	a5,a2,e98 <_write+0x10>
E:/桌面文件/chelouxietong/EVT/EXAM/SRC/StdPeriphDriver/CH57x_sys.c:370
        while(R8_UART3_TFC == UART_FIFO_SIZE);                  /* 等待数据发送 */
        R8_UART3_THR = *buf++; /* 发送数据 */
#endif
    }
    return size;
}
     e94:	8532                	mv	a0,a2
     e96:	8082                	ret
E:/桌面文件/chelouxietong/EVT/EXAM/SRC/StdPeriphDriver/CH57x_sys.c:359 (discriminator 1)
        while(R8_UART1_TFC == UART_FIFO_SIZE);                  /* 等待数据发送 */
     e98:	40b74503          	lbu	a0,1035(a4) # 4000340b <_eusrstack+0x1fffb40b>
     e9c:	fea68ee3          	beq	a3,a0,e98 <_write+0x10>
E:/桌面文件/chelouxietong/EVT/EXAM/SRC/StdPeriphDriver/CH57x_sys.c:360 (discriminator 2)
        R8_UART1_THR = *buf++; /* 发送数据 */
     ea0:	00f58533          	add	a0,a1,a5
     ea4:	00054503          	lbu	a0,0(a0)
E:/桌面文件/chelouxietong/EVT/EXAM/SRC/StdPeriphDriver/CH57x_sys.c:353 (discriminator 2)
    for(i = 0; i < size; i++)
     ea8:	0785                	addi	a5,a5,1
E:/桌面文件/chelouxietong/EVT/EXAM/SRC/StdPeriphDriver/CH57x_sys.c:360 (discriminator 2)
        R8_UART1_THR = *buf++; /* 发送数据 */
     eaa:	40a70423          	sb	a0,1032(a4)
     eae:	b7cd                	j	e90 <_write+0x8>

00000eb0 <UART1_BaudRateCfg>:
UART1_BaudRateCfg():
E:/桌面文件/chelouxietong/EVT/EXAM/SRC/StdPeriphDriver/CH57x_uart1.c:43
 * @param   baudrate    - 波特率
 *
 * @return  none
 */
void UART1_BaudRateCfg(uint32_t baudrate)
{
     eb0:	1141                	addi	sp,sp,-16
     eb2:	c422                	sw	s0,8(sp)
     eb4:	c606                	sw	ra,12(sp)
     eb6:	842a                	mv	s0,a0
E:/桌面文件/chelouxietong/EVT/EXAM/SRC/StdPeriphDriver/CH57x_uart1.c:46
    uint32_t x;

    x = 10 * GetSysClock() / 8 / baudrate;
     eb8:	3779                	jal	e46 <GetSysClock>
     eba:	4729                	li	a4,10
     ebc:	02e507b3          	mul	a5,a0,a4
E:/桌面文件/chelouxietong/EVT/EXAM/SRC/StdPeriphDriver/CH57x_uart1.c:49
    x = (x + 5) / 10;
    R16_UART1_DL = (uint16_t)x;
}
     ec0:	40b2                	lw	ra,12(sp)
E:/桌面文件/chelouxietong/EVT/EXAM/SRC/StdPeriphDriver/CH57x_uart1.c:46
    x = 10 * GetSysClock() / 8 / baudrate;
     ec2:	838d                	srli	a5,a5,0x3
     ec4:	0287d7b3          	divu	a5,a5,s0
E:/桌面文件/chelouxietong/EVT/EXAM/SRC/StdPeriphDriver/CH57x_uart1.c:49
}
     ec8:	4422                	lw	s0,8(sp)
E:/桌面文件/chelouxietong/EVT/EXAM/SRC/StdPeriphDriver/CH57x_uart1.c:47
    x = (x + 5) / 10;
     eca:	0795                	addi	a5,a5,5
     ecc:	02e7d7b3          	divu	a5,a5,a4
E:/桌面文件/chelouxietong/EVT/EXAM/SRC/StdPeriphDriver/CH57x_uart1.c:48
    R16_UART1_DL = (uint16_t)x;
     ed0:	40003737          	lui	a4,0x40003
     ed4:	07c2                	slli	a5,a5,0x10
     ed6:	83c1                	srli	a5,a5,0x10
     ed8:	40f71623          	sh	a5,1036(a4) # 4000340c <_eusrstack+0x1fffb40c>
E:/桌面文件/chelouxietong/EVT/EXAM/SRC/StdPeriphDriver/CH57x_uart1.c:49
}
     edc:	0141                	addi	sp,sp,16
     ede:	8082                	ret

00000ee0 <UART1_DefInit>:
UART1_DefInit():
E:/桌面文件/chelouxietong/EVT/EXAM/SRC/StdPeriphDriver/CH57x_uart1.c:26
    UART1_BaudRateCfg(115200);
     ee0:	6571                	lui	a0,0x1c
E:/桌面文件/chelouxietong/EVT/EXAM/SRC/StdPeriphDriver/CH57x_uart1.c:25
{
     ee2:	1141                	addi	sp,sp,-16
E:/桌面文件/chelouxietong/EVT/EXAM/SRC/StdPeriphDriver/CH57x_uart1.c:26
    UART1_BaudRateCfg(115200);
     ee4:	20050513          	addi	a0,a0,512 # 1c200 <_data_lma+0x19f54>
E:/桌面文件/chelouxietong/EVT/EXAM/SRC/StdPeriphDriver/CH57x_uart1.c:25
{
     ee8:	c606                	sw	ra,12(sp)
E:/桌面文件/chelouxietong/EVT/EXAM/SRC/StdPeriphDriver/CH57x_uart1.c:26
    UART1_BaudRateCfg(115200);
     eea:	37d9                	jal	eb0 <UART1_BaudRateCfg>
E:/桌面文件/chelouxietong/EVT/EXAM/SRC/StdPeriphDriver/CH57x_uart1.c:27
    R8_UART1_FCR = (2 << 6) | RB_FCR_TX_FIFO_CLR | RB_FCR_RX_FIFO_CLR | RB_FCR_FIFO_EN; // FIFO打开，触发点4字节
     eec:	400037b7          	lui	a5,0x40003
     ef0:	f8700713          	li	a4,-121
     ef4:	40e78123          	sb	a4,1026(a5) # 40003402 <_eusrstack+0x1fffb402>
E:/桌面文件/chelouxietong/EVT/EXAM/SRC/StdPeriphDriver/CH57x_uart1.c:28
    R8_UART1_LCR = RB_LCR_WORD_SZ;
     ef8:	470d                	li	a4,3
     efa:	40e781a3          	sb	a4,1027(a5)
E:/桌面文件/chelouxietong/EVT/EXAM/SRC/StdPeriphDriver/CH57x_uart1.c:29
    R8_UART1_IER = RB_IER_TXD_EN;
     efe:	04000713          	li	a4,64
     f02:	40e780a3          	sb	a4,1025(a5)
E:/桌面文件/chelouxietong/EVT/EXAM/SRC/StdPeriphDriver/CH57x_uart1.c:30
    R8_UART1_DIV = 1;
     f06:	4705                	li	a4,1
     f08:	40e78723          	sb	a4,1038(a5)
E:/桌面文件/chelouxietong/EVT/EXAM/SRC/StdPeriphDriver/CH57x_uart1.c:31
}
     f0c:	40b2                	lw	ra,12(sp)
     f0e:	0141                	addi	sp,sp,16
     f10:	8082                	ret

00000f12 <iprintf>:
printf():
     f12:	7139                	addi	sp,sp,-64
     f14:	da3e                	sw	a5,52(sp)
     f16:	d22e                	sw	a1,36(sp)
     f18:	d432                	sw	a2,40(sp)
     f1a:	d636                	sw	a3,44(sp)
     f1c:	d83a                	sw	a4,48(sp)
     f1e:	dc42                	sw	a6,56(sp)
     f20:	de46                	sw	a7,60(sp)
     f22:	20003797          	auipc	a5,0x20003
     f26:	25e78793          	addi	a5,a5,606 # 20004180 <_impure_ptr>
     f2a:	cc22                	sw	s0,24(sp)
     f2c:	4380                	lw	s0,0(a5)
     f2e:	ca26                	sw	s1,20(sp)
     f30:	ce06                	sw	ra,28(sp)
     f32:	84aa                	mv	s1,a0
     f34:	c409                	beqz	s0,f3e <iprintf+0x2c>
     f36:	4c1c                	lw	a5,24(s0)
     f38:	e399                	bnez	a5,f3e <iprintf+0x2c>
     f3a:	8522                	mv	a0,s0
     f3c:	2335                	jal	1468 <__sinit>
     f3e:	440c                	lw	a1,8(s0)
     f40:	1054                	addi	a3,sp,36
     f42:	8626                	mv	a2,s1
     f44:	8522                	mv	a0,s0
     f46:	c636                	sw	a3,12(sp)
     f48:	17f000ef          	jal	ra,18c6 <_vfiprintf_r>
     f4c:	40f2                	lw	ra,28(sp)
     f4e:	4462                	lw	s0,24(sp)
     f50:	44d2                	lw	s1,20(sp)
     f52:	6121                	addi	sp,sp,64
     f54:	8082                	ret

00000f56 <_puts_r>:
_puts_r():
     f56:	1101                	addi	sp,sp,-32
     f58:	ca26                	sw	s1,20(sp)
     f5a:	c84a                	sw	s2,16(sp)
     f5c:	ce06                	sw	ra,28(sp)
     f5e:	cc22                	sw	s0,24(sp)
     f60:	c64e                	sw	s3,12(sp)
     f62:	c452                	sw	s4,8(sp)
     f64:	84aa                	mv	s1,a0
     f66:	892e                	mv	s2,a1
     f68:	c501                	beqz	a0,f70 <_puts_r+0x1a>
     f6a:	4d1c                	lw	a5,24(a0)
     f6c:	e391                	bnez	a5,f70 <_puts_r+0x1a>
     f6e:	29ed                	jal	1468 <__sinit>
     f70:	4c9c                	lw	a5,24(s1)
     f72:	4480                	lw	s0,8(s1)
     f74:	e399                	bnez	a5,f7a <_puts_r+0x24>
     f76:	8526                	mv	a0,s1
     f78:	29c5                	jal	1468 <__sinit>
     f7a:	00001797          	auipc	a5,0x1
     f7e:	2ae78793          	addi	a5,a5,686 # 2228 <__sf_fake_stdin>
     f82:	02f41c63          	bne	s0,a5,fba <_puts_r+0x64>
     f86:	40c0                	lw	s0,4(s1)
     f88:	00c45783          	lhu	a5,12(s0)
     f8c:	8ba1                	andi	a5,a5,8
     f8e:	c7b1                	beqz	a5,fda <_puts_r+0x84>
     f90:	481c                	lw	a5,16(s0)
     f92:	c7a1                	beqz	a5,fda <_puts_r+0x84>
     f94:	59fd                	li	s3,-1
     f96:	4a29                	li	s4,10
     f98:	441c                	lw	a5,8(s0)
     f9a:	00094583          	lbu	a1,0(s2)
     f9e:	17fd                	addi	a5,a5,-1
     fa0:	e9b1                	bnez	a1,ff4 <_puts_r+0x9e>
     fa2:	c41c                	sw	a5,8(s0)
     fa4:	0607de63          	bgez	a5,1020 <_puts_r+0xca>
     fa8:	8622                	mv	a2,s0
     faa:	45a9                	li	a1,10
     fac:	8526                	mv	a0,s1
     fae:	2841                	jal	103e <__swbuf_r>
     fb0:	57fd                	li	a5,-1
     fb2:	02f50863          	beq	a0,a5,fe2 <_puts_r+0x8c>
     fb6:	4529                	li	a0,10
     fb8:	a035                	j	fe4 <_puts_r+0x8e>
     fba:	00001797          	auipc	a5,0x1
     fbe:	28e78793          	addi	a5,a5,654 # 2248 <__sf_fake_stdout>
     fc2:	00f41463          	bne	s0,a5,fca <_puts_r+0x74>
     fc6:	4480                	lw	s0,8(s1)
     fc8:	b7c1                	j	f88 <_puts_r+0x32>
     fca:	00001797          	auipc	a5,0x1
     fce:	23e78793          	addi	a5,a5,574 # 2208 <__sf_fake_stderr>
     fd2:	faf41be3          	bne	s0,a5,f88 <_puts_r+0x32>
     fd6:	44c0                	lw	s0,12(s1)
     fd8:	bf45                	j	f88 <_puts_r+0x32>
     fda:	85a2                	mv	a1,s0
     fdc:	8526                	mv	a0,s1
     fde:	2205                	jal	10fe <__swsetup_r>
     fe0:	d955                	beqz	a0,f94 <_puts_r+0x3e>
     fe2:	557d                	li	a0,-1
     fe4:	40f2                	lw	ra,28(sp)
     fe6:	4462                	lw	s0,24(sp)
     fe8:	44d2                	lw	s1,20(sp)
     fea:	4942                	lw	s2,16(sp)
     fec:	49b2                	lw	s3,12(sp)
     fee:	4a22                	lw	s4,8(sp)
     ff0:	6105                	addi	sp,sp,32
     ff2:	8082                	ret
     ff4:	c41c                	sw	a5,8(s0)
     ff6:	0905                	addi	s2,s2,1
     ff8:	0007d763          	bgez	a5,1006 <_puts_r+0xb0>
     ffc:	4c18                	lw	a4,24(s0)
     ffe:	00e7cb63          	blt	a5,a4,1014 <_puts_r+0xbe>
    1002:	01458963          	beq	a1,s4,1014 <_puts_r+0xbe>
    1006:	401c                	lw	a5,0(s0)
    1008:	00178713          	addi	a4,a5,1
    100c:	c018                	sw	a4,0(s0)
    100e:	00b78023          	sb	a1,0(a5)
    1012:	b759                	j	f98 <_puts_r+0x42>
    1014:	8622                	mv	a2,s0
    1016:	8526                	mv	a0,s1
    1018:	201d                	jal	103e <__swbuf_r>
    101a:	f7351fe3          	bne	a0,s3,f98 <_puts_r+0x42>
    101e:	b7d1                	j	fe2 <_puts_r+0x8c>
    1020:	401c                	lw	a5,0(s0)
    1022:	00178713          	addi	a4,a5,1
    1026:	c018                	sw	a4,0(s0)
    1028:	4729                	li	a4,10
    102a:	00e78023          	sb	a4,0(a5)
    102e:	b761                	j	fb6 <_puts_r+0x60>

00001030 <puts>:
puts():
    1030:	20003797          	auipc	a5,0x20003
    1034:	15078793          	addi	a5,a5,336 # 20004180 <_impure_ptr>
    1038:	85aa                	mv	a1,a0
    103a:	4388                	lw	a0,0(a5)
    103c:	bf29                	j	f56 <_puts_r>

0000103e <__swbuf_r>:
__swbuf_r():
    103e:	1101                	addi	sp,sp,-32
    1040:	cc22                	sw	s0,24(sp)
    1042:	ca26                	sw	s1,20(sp)
    1044:	c84a                	sw	s2,16(sp)
    1046:	ce06                	sw	ra,28(sp)
    1048:	c64e                	sw	s3,12(sp)
    104a:	84aa                	mv	s1,a0
    104c:	892e                	mv	s2,a1
    104e:	8432                	mv	s0,a2
    1050:	c501                	beqz	a0,1058 <__swbuf_r+0x1a>
    1052:	4d1c                	lw	a5,24(a0)
    1054:	e391                	bnez	a5,1058 <__swbuf_r+0x1a>
    1056:	2909                	jal	1468 <__sinit>
    1058:	00001797          	auipc	a5,0x1
    105c:	1d078793          	addi	a5,a5,464 # 2228 <__sf_fake_stdin>
    1060:	06f41963          	bne	s0,a5,10d2 <__swbuf_r+0x94>
    1064:	40c0                	lw	s0,4(s1)
    1066:	4c1c                	lw	a5,24(s0)
    1068:	c41c                	sw	a5,8(s0)
    106a:	00c45783          	lhu	a5,12(s0)
    106e:	8ba1                	andi	a5,a5,8
    1070:	c3c9                	beqz	a5,10f2 <__swbuf_r+0xb4>
    1072:	481c                	lw	a5,16(s0)
    1074:	cfbd                	beqz	a5,10f2 <__swbuf_r+0xb4>
    1076:	481c                	lw	a5,16(s0)
    1078:	4008                	lw	a0,0(s0)
    107a:	0ff97993          	andi	s3,s2,255
    107e:	0ff97913          	andi	s2,s2,255
    1082:	8d1d                	sub	a0,a0,a5
    1084:	485c                	lw	a5,20(s0)
    1086:	00f54663          	blt	a0,a5,1092 <__swbuf_r+0x54>
    108a:	85a2                	mv	a1,s0
    108c:	8526                	mv	a0,s1
    108e:	2c75                	jal	134a <_fflush_r>
    1090:	e52d                	bnez	a0,10fa <__swbuf_r+0xbc>
    1092:	441c                	lw	a5,8(s0)
    1094:	0505                	addi	a0,a0,1
    1096:	17fd                	addi	a5,a5,-1
    1098:	c41c                	sw	a5,8(s0)
    109a:	401c                	lw	a5,0(s0)
    109c:	00178713          	addi	a4,a5,1
    10a0:	c018                	sw	a4,0(s0)
    10a2:	01378023          	sb	s3,0(a5)
    10a6:	485c                	lw	a5,20(s0)
    10a8:	00a78963          	beq	a5,a0,10ba <__swbuf_r+0x7c>
    10ac:	00c45783          	lhu	a5,12(s0)
    10b0:	8b85                	andi	a5,a5,1
    10b2:	cb81                	beqz	a5,10c2 <__swbuf_r+0x84>
    10b4:	47a9                	li	a5,10
    10b6:	00f91663          	bne	s2,a5,10c2 <__swbuf_r+0x84>
    10ba:	85a2                	mv	a1,s0
    10bc:	8526                	mv	a0,s1
    10be:	2471                	jal	134a <_fflush_r>
    10c0:	ed0d                	bnez	a0,10fa <__swbuf_r+0xbc>
    10c2:	40f2                	lw	ra,28(sp)
    10c4:	4462                	lw	s0,24(sp)
    10c6:	854a                	mv	a0,s2
    10c8:	44d2                	lw	s1,20(sp)
    10ca:	4942                	lw	s2,16(sp)
    10cc:	49b2                	lw	s3,12(sp)
    10ce:	6105                	addi	sp,sp,32
    10d0:	8082                	ret
    10d2:	00001797          	auipc	a5,0x1
    10d6:	17678793          	addi	a5,a5,374 # 2248 <__sf_fake_stdout>
    10da:	00f41463          	bne	s0,a5,10e2 <__swbuf_r+0xa4>
    10de:	4480                	lw	s0,8(s1)
    10e0:	b759                	j	1066 <__swbuf_r+0x28>
    10e2:	00001797          	auipc	a5,0x1
    10e6:	12678793          	addi	a5,a5,294 # 2208 <__sf_fake_stderr>
    10ea:	f6f41ee3          	bne	s0,a5,1066 <__swbuf_r+0x28>
    10ee:	44c0                	lw	s0,12(s1)
    10f0:	bf9d                	j	1066 <__swbuf_r+0x28>
    10f2:	85a2                	mv	a1,s0
    10f4:	8526                	mv	a0,s1
    10f6:	2021                	jal	10fe <__swsetup_r>
    10f8:	dd3d                	beqz	a0,1076 <__swbuf_r+0x38>
    10fa:	597d                	li	s2,-1
    10fc:	b7d9                	j	10c2 <__swbuf_r+0x84>

000010fe <__swsetup_r>:
__swsetup_r():
    10fe:	1141                	addi	sp,sp,-16
    1100:	20003797          	auipc	a5,0x20003
    1104:	08078793          	addi	a5,a5,128 # 20004180 <_impure_ptr>
    1108:	c226                	sw	s1,4(sp)
    110a:	4384                	lw	s1,0(a5)
    110c:	c422                	sw	s0,8(sp)
    110e:	c04a                	sw	s2,0(sp)
    1110:	c606                	sw	ra,12(sp)
    1112:	892a                	mv	s2,a0
    1114:	842e                	mv	s0,a1
    1116:	c489                	beqz	s1,1120 <__swsetup_r+0x22>
    1118:	4c9c                	lw	a5,24(s1)
    111a:	e399                	bnez	a5,1120 <__swsetup_r+0x22>
    111c:	8526                	mv	a0,s1
    111e:	26a9                	jal	1468 <__sinit>
    1120:	00001797          	auipc	a5,0x1
    1124:	10878793          	addi	a5,a5,264 # 2228 <__sf_fake_stdin>
    1128:	02f41c63          	bne	s0,a5,1160 <__swsetup_r+0x62>
    112c:	40c0                	lw	s0,4(s1)
    112e:	00c41703          	lh	a4,12(s0)
    1132:	01071793          	slli	a5,a4,0x10
    1136:	83c1                	srli	a5,a5,0x10
    1138:	0087f693          	andi	a3,a5,8
    113c:	eeb5                	bnez	a3,11b8 <__swsetup_r+0xba>
    113e:	0107f693          	andi	a3,a5,16
    1142:	ee9d                	bnez	a3,1180 <__swsetup_r+0x82>
    1144:	47a5                	li	a5,9
    1146:	00f92023          	sw	a5,0(s2)
    114a:	04076713          	ori	a4,a4,64
    114e:	00e41623          	sh	a4,12(s0)
    1152:	557d                	li	a0,-1
    1154:	40b2                	lw	ra,12(sp)
    1156:	4422                	lw	s0,8(sp)
    1158:	4492                	lw	s1,4(sp)
    115a:	4902                	lw	s2,0(sp)
    115c:	0141                	addi	sp,sp,16
    115e:	8082                	ret
    1160:	00001797          	auipc	a5,0x1
    1164:	0e878793          	addi	a5,a5,232 # 2248 <__sf_fake_stdout>
    1168:	00f41463          	bne	s0,a5,1170 <__swsetup_r+0x72>
    116c:	4480                	lw	s0,8(s1)
    116e:	b7c1                	j	112e <__swsetup_r+0x30>
    1170:	00001797          	auipc	a5,0x1
    1174:	09878793          	addi	a5,a5,152 # 2208 <__sf_fake_stderr>
    1178:	faf41be3          	bne	s0,a5,112e <__swsetup_r+0x30>
    117c:	44c0                	lw	s0,12(s1)
    117e:	bf45                	j	112e <__swsetup_r+0x30>
    1180:	8b91                	andi	a5,a5,4
    1182:	c78d                	beqz	a5,11ac <__swsetup_r+0xae>
    1184:	584c                	lw	a1,52(s0)
    1186:	c989                	beqz	a1,1198 <__swsetup_r+0x9a>
    1188:	04440793          	addi	a5,s0,68
    118c:	00f58463          	beq	a1,a5,1194 <__swsetup_r+0x96>
    1190:	854a                	mv	a0,s2
    1192:	2391                	jal	16d6 <_free_r>
    1194:	02042a23          	sw	zero,52(s0)
    1198:	00c45783          	lhu	a5,12(s0)
    119c:	00042223          	sw	zero,4(s0)
    11a0:	fdb7f793          	andi	a5,a5,-37
    11a4:	00f41623          	sh	a5,12(s0)
    11a8:	481c                	lw	a5,16(s0)
    11aa:	c01c                	sw	a5,0(s0)
    11ac:	00c45783          	lhu	a5,12(s0)
    11b0:	0087e793          	ori	a5,a5,8
    11b4:	00f41623          	sh	a5,12(s0)
    11b8:	481c                	lw	a5,16(s0)
    11ba:	ef81                	bnez	a5,11d2 <__swsetup_r+0xd4>
    11bc:	00c45783          	lhu	a5,12(s0)
    11c0:	20000713          	li	a4,512
    11c4:	2807f793          	andi	a5,a5,640
    11c8:	00e78563          	beq	a5,a4,11d2 <__swsetup_r+0xd4>
    11cc:	85a2                	mv	a1,s0
    11ce:	854a                	mv	a0,s2
    11d0:	21a5                	jal	1638 <__smakebuf_r>
    11d2:	00c45783          	lhu	a5,12(s0)
    11d6:	0017f713          	andi	a4,a5,1
    11da:	c705                	beqz	a4,1202 <__swsetup_r+0x104>
    11dc:	485c                	lw	a5,20(s0)
    11de:	00042423          	sw	zero,8(s0)
    11e2:	40f007b3          	neg	a5,a5
    11e6:	cc1c                	sw	a5,24(s0)
    11e8:	481c                	lw	a5,16(s0)
    11ea:	4501                	li	a0,0
    11ec:	f7a5                	bnez	a5,1154 <__swsetup_r+0x56>
    11ee:	00c41783          	lh	a5,12(s0)
    11f2:	0807f713          	andi	a4,a5,128
    11f6:	df39                	beqz	a4,1154 <__swsetup_r+0x56>
    11f8:	0407e793          	ori	a5,a5,64
    11fc:	00f41623          	sh	a5,12(s0)
    1200:	bf89                	j	1152 <__swsetup_r+0x54>
    1202:	8b89                	andi	a5,a5,2
    1204:	4701                	li	a4,0
    1206:	e391                	bnez	a5,120a <__swsetup_r+0x10c>
    1208:	4858                	lw	a4,20(s0)
    120a:	c418                	sw	a4,8(s0)
    120c:	bff1                	j	11e8 <__swsetup_r+0xea>

0000120e <__sflush_r>:
__sflush_r():
    120e:	00c5d783          	lhu	a5,12(a1)
    1212:	1101                	addi	sp,sp,-32
    1214:	cc22                	sw	s0,24(sp)
    1216:	ca26                	sw	s1,20(sp)
    1218:	ce06                	sw	ra,28(sp)
    121a:	c84a                	sw	s2,16(sp)
    121c:	c64e                	sw	s3,12(sp)
    121e:	0087f713          	andi	a4,a5,8
    1222:	84aa                	mv	s1,a0
    1224:	842e                	mv	s0,a1
    1226:	ef71                	bnez	a4,1302 <__sflush_r+0xf4>
    1228:	41d8                	lw	a4,4(a1)
    122a:	00e04d63          	bgtz	a4,1244 <__sflush_r+0x36>
    122e:	41b8                	lw	a4,64(a1)
    1230:	00e04a63          	bgtz	a4,1244 <__sflush_r+0x36>
    1234:	4501                	li	a0,0
    1236:	40f2                	lw	ra,28(sp)
    1238:	4462                	lw	s0,24(sp)
    123a:	44d2                	lw	s1,20(sp)
    123c:	4942                	lw	s2,16(sp)
    123e:	49b2                	lw	s3,12(sp)
    1240:	6105                	addi	sp,sp,32
    1242:	8082                	ret
    1244:	5458                	lw	a4,44(s0)
    1246:	d77d                	beqz	a4,1234 <__sflush_r+0x26>
    1248:	0004a903          	lw	s2,0(s1)
    124c:	01379693          	slli	a3,a5,0x13
    1250:	0004a023          	sw	zero,0(s1)
    1254:	0606dd63          	bgez	a3,12ce <__sflush_r+0xc0>
    1258:	4870                	lw	a2,84(s0)
    125a:	00c45783          	lhu	a5,12(s0)
    125e:	8b91                	andi	a5,a5,4
    1260:	c799                	beqz	a5,126e <__sflush_r+0x60>
    1262:	405c                	lw	a5,4(s0)
    1264:	8e1d                	sub	a2,a2,a5
    1266:	585c                	lw	a5,52(s0)
    1268:	c399                	beqz	a5,126e <__sflush_r+0x60>
    126a:	403c                	lw	a5,64(s0)
    126c:	8e1d                	sub	a2,a2,a5
    126e:	545c                	lw	a5,44(s0)
    1270:	500c                	lw	a1,32(s0)
    1272:	4681                	li	a3,0
    1274:	8526                	mv	a0,s1
    1276:	9782                	jalr	a5
    1278:	57fd                	li	a5,-1
    127a:	00c45703          	lhu	a4,12(s0)
    127e:	00f51d63          	bne	a0,a5,1298 <__sflush_r+0x8a>
    1282:	4094                	lw	a3,0(s1)
    1284:	47f5                	li	a5,29
    1286:	06d7e863          	bltu	a5,a3,12f6 <__sflush_r+0xe8>
    128a:	204007b7          	lui	a5,0x20400
    128e:	0785                	addi	a5,a5,1
    1290:	00d7d7b3          	srl	a5,a5,a3
    1294:	8b85                	andi	a5,a5,1
    1296:	c3a5                	beqz	a5,12f6 <__sflush_r+0xe8>
    1298:	481c                	lw	a5,16(s0)
    129a:	00042223          	sw	zero,4(s0)
    129e:	c01c                	sw	a5,0(s0)
    12a0:	01371793          	slli	a5,a4,0x13
    12a4:	0007d863          	bgez	a5,12b4 <__sflush_r+0xa6>
    12a8:	57fd                	li	a5,-1
    12aa:	00f51463          	bne	a0,a5,12b2 <__sflush_r+0xa4>
    12ae:	409c                	lw	a5,0(s1)
    12b0:	e391                	bnez	a5,12b4 <__sflush_r+0xa6>
    12b2:	c868                	sw	a0,84(s0)
    12b4:	584c                	lw	a1,52(s0)
    12b6:	0124a023          	sw	s2,0(s1)
    12ba:	ddad                	beqz	a1,1234 <__sflush_r+0x26>
    12bc:	04440793          	addi	a5,s0,68
    12c0:	00f58463          	beq	a1,a5,12c8 <__sflush_r+0xba>
    12c4:	8526                	mv	a0,s1
    12c6:	2901                	jal	16d6 <_free_r>
    12c8:	02042a23          	sw	zero,52(s0)
    12cc:	b7a5                	j	1234 <__sflush_r+0x26>
    12ce:	500c                	lw	a1,32(s0)
    12d0:	4601                	li	a2,0
    12d2:	4685                	li	a3,1
    12d4:	8526                	mv	a0,s1
    12d6:	9702                	jalr	a4
    12d8:	57fd                	li	a5,-1
    12da:	862a                	mv	a2,a0
    12dc:	f6f51fe3          	bne	a0,a5,125a <__sflush_r+0x4c>
    12e0:	409c                	lw	a5,0(s1)
    12e2:	dfa5                	beqz	a5,125a <__sflush_r+0x4c>
    12e4:	4775                	li	a4,29
    12e6:	00e78563          	beq	a5,a4,12f0 <__sflush_r+0xe2>
    12ea:	4759                	li	a4,22
    12ec:	04e79463          	bne	a5,a4,1334 <__sflush_r+0x126>
    12f0:	0124a023          	sw	s2,0(s1)
    12f4:	b781                	j	1234 <__sflush_r+0x26>
    12f6:	04076713          	ori	a4,a4,64
    12fa:	00e41623          	sh	a4,12(s0)
    12fe:	557d                	li	a0,-1
    1300:	bf1d                	j	1236 <__sflush_r+0x28>
    1302:	0105a983          	lw	s3,16(a1)
    1306:	f20987e3          	beqz	s3,1234 <__sflush_r+0x26>
    130a:	0005a903          	lw	s2,0(a1)
    130e:	8b8d                	andi	a5,a5,3
    1310:	0135a023          	sw	s3,0(a1)
    1314:	41390933          	sub	s2,s2,s3
    1318:	4701                	li	a4,0
    131a:	e391                	bnez	a5,131e <__sflush_r+0x110>
    131c:	49d8                	lw	a4,20(a1)
    131e:	c418                	sw	a4,8(s0)
    1320:	f1205ae3          	blez	s2,1234 <__sflush_r+0x26>
    1324:	541c                	lw	a5,40(s0)
    1326:	500c                	lw	a1,32(s0)
    1328:	86ca                	mv	a3,s2
    132a:	864e                	mv	a2,s3
    132c:	8526                	mv	a0,s1
    132e:	9782                	jalr	a5
    1330:	00a04963          	bgtz	a0,1342 <__sflush_r+0x134>
    1334:	00c45783          	lhu	a5,12(s0)
    1338:	0407e793          	ori	a5,a5,64
    133c:	00f41623          	sh	a5,12(s0)
    1340:	bf7d                	j	12fe <__sflush_r+0xf0>
    1342:	99aa                	add	s3,s3,a0
    1344:	40a90933          	sub	s2,s2,a0
    1348:	bfe1                	j	1320 <__sflush_r+0x112>

0000134a <_fflush_r>:
_fflush_r():
    134a:	499c                	lw	a5,16(a1)
    134c:	cfb9                	beqz	a5,13aa <_fflush_r+0x60>
    134e:	1101                	addi	sp,sp,-32
    1350:	cc22                	sw	s0,24(sp)
    1352:	ce06                	sw	ra,28(sp)
    1354:	842a                	mv	s0,a0
    1356:	c511                	beqz	a0,1362 <_fflush_r+0x18>
    1358:	4d1c                	lw	a5,24(a0)
    135a:	e781                	bnez	a5,1362 <_fflush_r+0x18>
    135c:	c62e                	sw	a1,12(sp)
    135e:	2229                	jal	1468 <__sinit>
    1360:	45b2                	lw	a1,12(sp)
    1362:	00001797          	auipc	a5,0x1
    1366:	ec678793          	addi	a5,a5,-314 # 2228 <__sf_fake_stdin>
    136a:	00f59b63          	bne	a1,a5,1380 <_fflush_r+0x36>
    136e:	404c                	lw	a1,4(s0)
    1370:	00c59783          	lh	a5,12(a1)
    1374:	c795                	beqz	a5,13a0 <_fflush_r+0x56>
    1376:	8522                	mv	a0,s0
    1378:	4462                	lw	s0,24(sp)
    137a:	40f2                	lw	ra,28(sp)
    137c:	6105                	addi	sp,sp,32
    137e:	bd41                	j	120e <__sflush_r>
    1380:	00001797          	auipc	a5,0x1
    1384:	ec878793          	addi	a5,a5,-312 # 2248 <__sf_fake_stdout>
    1388:	00f59463          	bne	a1,a5,1390 <_fflush_r+0x46>
    138c:	440c                	lw	a1,8(s0)
    138e:	b7cd                	j	1370 <_fflush_r+0x26>
    1390:	00001797          	auipc	a5,0x1
    1394:	e7878793          	addi	a5,a5,-392 # 2208 <__sf_fake_stderr>
    1398:	fcf59ce3          	bne	a1,a5,1370 <_fflush_r+0x26>
    139c:	444c                	lw	a1,12(s0)
    139e:	bfc9                	j	1370 <_fflush_r+0x26>
    13a0:	40f2                	lw	ra,28(sp)
    13a2:	4462                	lw	s0,24(sp)
    13a4:	4501                	li	a0,0
    13a6:	6105                	addi	sp,sp,32
    13a8:	8082                	ret
    13aa:	4501                	li	a0,0
    13ac:	8082                	ret

000013ae <std>:
std():
    13ae:	1141                	addi	sp,sp,-16
    13b0:	c422                	sw	s0,8(sp)
    13b2:	c606                	sw	ra,12(sp)
    13b4:	842a                	mv	s0,a0
    13b6:	00b51623          	sh	a1,12(a0)
    13ba:	00c51723          	sh	a2,14(a0)
    13be:	00052023          	sw	zero,0(a0)
    13c2:	00052223          	sw	zero,4(a0)
    13c6:	00052423          	sw	zero,8(a0)
    13ca:	06052223          	sw	zero,100(a0)
    13ce:	00052823          	sw	zero,16(a0)
    13d2:	00052a23          	sw	zero,20(a0)
    13d6:	00052c23          	sw	zero,24(a0)
    13da:	4621                	li	a2,8
    13dc:	4581                	li	a1,0
    13de:	05c50513          	addi	a0,a0,92
    13e2:	ddcff0ef          	jal	ra,9be <memset>
    13e6:	00001797          	auipc	a5,0x1
    13ea:	b5478793          	addi	a5,a5,-1196 # 1f3a <__sread>
    13ee:	d05c                	sw	a5,36(s0)
    13f0:	00001797          	auipc	a5,0x1
    13f4:	b7a78793          	addi	a5,a5,-1158 # 1f6a <__swrite>
    13f8:	d41c                	sw	a5,40(s0)
    13fa:	00001797          	auipc	a5,0x1
    13fe:	bbe78793          	addi	a5,a5,-1090 # 1fb8 <__sseek>
    1402:	d45c                	sw	a5,44(s0)
    1404:	00001797          	auipc	a5,0x1
    1408:	bea78793          	addi	a5,a5,-1046 # 1fee <__sclose>
    140c:	d000                	sw	s0,32(s0)
    140e:	d81c                	sw	a5,48(s0)
    1410:	40b2                	lw	ra,12(sp)
    1412:	4422                	lw	s0,8(sp)
    1414:	0141                	addi	sp,sp,16
    1416:	8082                	ret

00001418 <_cleanup_r>:
_cleanup_r():
    1418:	00000597          	auipc	a1,0x0
    141c:	f3258593          	addi	a1,a1,-206 # 134a <_fflush_r>
    1420:	aa89                	j	1572 <_fwalk_reent>

00001422 <__sfmoreglue>:
__sfmoreglue():
    1422:	1141                	addi	sp,sp,-16
    1424:	c226                	sw	s1,4(sp)
    1426:	06800613          	li	a2,104
    142a:	fff58493          	addi	s1,a1,-1
    142e:	02c484b3          	mul	s1,s1,a2
    1432:	c04a                	sw	s2,0(sp)
    1434:	892e                	mv	s2,a1
    1436:	c422                	sw	s0,8(sp)
    1438:	c606                	sw	ra,12(sp)
    143a:	07448593          	addi	a1,s1,116
    143e:	26a1                	jal	1786 <_malloc_r>
    1440:	842a                	mv	s0,a0
    1442:	cd01                	beqz	a0,145a <__sfmoreglue+0x38>
    1444:	00052023          	sw	zero,0(a0)
    1448:	01252223          	sw	s2,4(a0)
    144c:	0531                	addi	a0,a0,12
    144e:	c408                	sw	a0,8(s0)
    1450:	06848613          	addi	a2,s1,104
    1454:	4581                	li	a1,0
    1456:	d68ff0ef          	jal	ra,9be <memset>
    145a:	8522                	mv	a0,s0
    145c:	40b2                	lw	ra,12(sp)
    145e:	4422                	lw	s0,8(sp)
    1460:	4492                	lw	s1,4(sp)
    1462:	4902                	lw	s2,0(sp)
    1464:	0141                	addi	sp,sp,16
    1466:	8082                	ret

00001468 <__sinit>:
__sinit():
    1468:	4d1c                	lw	a5,24(a0)
    146a:	e3bd                	bnez	a5,14d0 <__sinit+0x68>
    146c:	1141                	addi	sp,sp,-16
    146e:	c606                	sw	ra,12(sp)
    1470:	c422                	sw	s0,8(sp)
    1472:	00000797          	auipc	a5,0x0
    1476:	fa678793          	addi	a5,a5,-90 # 1418 <_cleanup_r>
    147a:	d51c                	sw	a5,40(a0)
    147c:	00001797          	auipc	a5,0x1
    1480:	e2c78793          	addi	a5,a5,-468 # 22a8 <_global_impure_ptr>
    1484:	439c                	lw	a5,0(a5)
    1486:	04052423          	sw	zero,72(a0)
    148a:	04052623          	sw	zero,76(a0)
    148e:	04052823          	sw	zero,80(a0)
    1492:	00f51463          	bne	a0,a5,149a <__sinit+0x32>
    1496:	4785                	li	a5,1
    1498:	cd1c                	sw	a5,24(a0)
    149a:	842a                	mv	s0,a0
    149c:	281d                	jal	14d2 <__sfp>
    149e:	c048                	sw	a0,4(s0)
    14a0:	8522                	mv	a0,s0
    14a2:	2805                	jal	14d2 <__sfp>
    14a4:	c408                	sw	a0,8(s0)
    14a6:	8522                	mv	a0,s0
    14a8:	202d                	jal	14d2 <__sfp>
    14aa:	c448                	sw	a0,12(s0)
    14ac:	4048                	lw	a0,4(s0)
    14ae:	4601                	li	a2,0
    14b0:	4591                	li	a1,4
    14b2:	3df5                	jal	13ae <std>
    14b4:	4408                	lw	a0,8(s0)
    14b6:	4605                	li	a2,1
    14b8:	45a5                	li	a1,9
    14ba:	3dd5                	jal	13ae <std>
    14bc:	4448                	lw	a0,12(s0)
    14be:	4609                	li	a2,2
    14c0:	45c9                	li	a1,18
    14c2:	35f5                	jal	13ae <std>
    14c4:	4785                	li	a5,1
    14c6:	cc1c                	sw	a5,24(s0)
    14c8:	40b2                	lw	ra,12(sp)
    14ca:	4422                	lw	s0,8(sp)
    14cc:	0141                	addi	sp,sp,16
    14ce:	8082                	ret
    14d0:	8082                	ret

000014d2 <__sfp>:
__sfp():
    14d2:	1141                	addi	sp,sp,-16
    14d4:	00001797          	auipc	a5,0x1
    14d8:	dd478793          	addi	a5,a5,-556 # 22a8 <_global_impure_ptr>
    14dc:	c226                	sw	s1,4(sp)
    14de:	4384                	lw	s1,0(a5)
    14e0:	c04a                	sw	s2,0(sp)
    14e2:	c606                	sw	ra,12(sp)
    14e4:	4c9c                	lw	a5,24(s1)
    14e6:	c422                	sw	s0,8(sp)
    14e8:	892a                	mv	s2,a0
    14ea:	e399                	bnez	a5,14f0 <__sfp+0x1e>
    14ec:	8526                	mv	a0,s1
    14ee:	3fad                	jal	1468 <__sinit>
    14f0:	04848493          	addi	s1,s1,72
    14f4:	4480                	lw	s0,8(s1)
    14f6:	40dc                	lw	a5,4(s1)
    14f8:	17fd                	addi	a5,a5,-1
    14fa:	0007d663          	bgez	a5,1506 <__sfp+0x34>
    14fe:	409c                	lw	a5,0(s1)
    1500:	cfb9                	beqz	a5,155e <__sfp+0x8c>
    1502:	4084                	lw	s1,0(s1)
    1504:	bfc5                	j	14f4 <__sfp+0x22>
    1506:	00c41703          	lh	a4,12(s0)
    150a:	e739                	bnez	a4,1558 <__sfp+0x86>
    150c:	77c1                	lui	a5,0xffff0
    150e:	0785                	addi	a5,a5,1
    1510:	06042223          	sw	zero,100(s0)
    1514:	00042023          	sw	zero,0(s0)
    1518:	00042223          	sw	zero,4(s0)
    151c:	00042423          	sw	zero,8(s0)
    1520:	c45c                	sw	a5,12(s0)
    1522:	00042823          	sw	zero,16(s0)
    1526:	00042a23          	sw	zero,20(s0)
    152a:	00042c23          	sw	zero,24(s0)
    152e:	4621                	li	a2,8
    1530:	4581                	li	a1,0
    1532:	05c40513          	addi	a0,s0,92
    1536:	c88ff0ef          	jal	ra,9be <memset>
    153a:	02042a23          	sw	zero,52(s0)
    153e:	02042c23          	sw	zero,56(s0)
    1542:	04042423          	sw	zero,72(s0)
    1546:	04042623          	sw	zero,76(s0)
    154a:	8522                	mv	a0,s0
    154c:	40b2                	lw	ra,12(sp)
    154e:	4422                	lw	s0,8(sp)
    1550:	4492                	lw	s1,4(sp)
    1552:	4902                	lw	s2,0(sp)
    1554:	0141                	addi	sp,sp,16
    1556:	8082                	ret
    1558:	06840413          	addi	s0,s0,104
    155c:	bf71                	j	14f8 <__sfp+0x26>
    155e:	4591                	li	a1,4
    1560:	854a                	mv	a0,s2
    1562:	35c1                	jal	1422 <__sfmoreglue>
    1564:	c088                	sw	a0,0(s1)
    1566:	fd51                	bnez	a0,1502 <__sfp+0x30>
    1568:	47b1                	li	a5,12
    156a:	00f92023          	sw	a5,0(s2)
    156e:	4401                	li	s0,0
    1570:	bfe9                	j	154a <__sfp+0x78>

00001572 <_fwalk_reent>:
_fwalk_reent():
    1572:	7179                	addi	sp,sp,-48
    1574:	d422                	sw	s0,40(sp)
    1576:	d04a                	sw	s2,32(sp)
    1578:	cc52                	sw	s4,24(sp)
    157a:	ca56                	sw	s5,20(sp)
    157c:	c85a                	sw	s6,16(sp)
    157e:	c65e                	sw	s7,12(sp)
    1580:	d606                	sw	ra,44(sp)
    1582:	d226                	sw	s1,36(sp)
    1584:	ce4e                	sw	s3,28(sp)
    1586:	8a2a                	mv	s4,a0
    1588:	8aae                	mv	s5,a1
    158a:	04850413          	addi	s0,a0,72
    158e:	4901                	li	s2,0
    1590:	4b05                	li	s6,1
    1592:	5bfd                	li	s7,-1
    1594:	ec09                	bnez	s0,15ae <_fwalk_reent+0x3c>
    1596:	50b2                	lw	ra,44(sp)
    1598:	5422                	lw	s0,40(sp)
    159a:	854a                	mv	a0,s2
    159c:	5492                	lw	s1,36(sp)
    159e:	5902                	lw	s2,32(sp)
    15a0:	49f2                	lw	s3,28(sp)
    15a2:	4a62                	lw	s4,24(sp)
    15a4:	4ad2                	lw	s5,20(sp)
    15a6:	4b42                	lw	s6,16(sp)
    15a8:	4bb2                	lw	s7,12(sp)
    15aa:	6145                	addi	sp,sp,48
    15ac:	8082                	ret
    15ae:	4404                	lw	s1,8(s0)
    15b0:	00442983          	lw	s3,4(s0)
    15b4:	19fd                	addi	s3,s3,-1
    15b6:	0009d463          	bgez	s3,15be <_fwalk_reent+0x4c>
    15ba:	4000                	lw	s0,0(s0)
    15bc:	bfe1                	j	1594 <_fwalk_reent+0x22>
    15be:	00c4d783          	lhu	a5,12(s1)
    15c2:	00fb7b63          	bgeu	s6,a5,15d8 <_fwalk_reent+0x66>
    15c6:	00e49783          	lh	a5,14(s1)
    15ca:	01778763          	beq	a5,s7,15d8 <_fwalk_reent+0x66>
    15ce:	85a6                	mv	a1,s1
    15d0:	8552                	mv	a0,s4
    15d2:	9a82                	jalr	s5
    15d4:	00a96933          	or	s2,s2,a0
    15d8:	06848493          	addi	s1,s1,104
    15dc:	bfe1                	j	15b4 <_fwalk_reent+0x42>

000015de <__swhatbuf_r>:
__swhatbuf_r():
    15de:	7119                	addi	sp,sp,-128
    15e0:	daa6                	sw	s1,116(sp)
    15e2:	84ae                	mv	s1,a1
    15e4:	00e59583          	lh	a1,14(a1)
    15e8:	dca2                	sw	s0,120(sp)
    15ea:	de86                	sw	ra,124(sp)
    15ec:	8432                	mv	s0,a2
    15ee:	0005dc63          	bgez	a1,1606 <__swhatbuf_r+0x28>
    15f2:	00c4d783          	lhu	a5,12(s1)
    15f6:	0006a023          	sw	zero,0(a3)
    15fa:	0807f793          	andi	a5,a5,128
    15fe:	e785                	bnez	a5,1626 <__swhatbuf_r+0x48>
    1600:	40000793          	li	a5,1024
    1604:	a01d                	j	162a <__swhatbuf_r+0x4c>
    1606:	0830                	addi	a2,sp,24
    1608:	c636                	sw	a3,12(sp)
    160a:	241000ef          	jal	ra,204a <_fstat_r>
    160e:	46b2                	lw	a3,12(sp)
    1610:	fe0541e3          	bltz	a0,15f2 <__swhatbuf_r+0x14>
    1614:	4772                	lw	a4,28(sp)
    1616:	67bd                	lui	a5,0xf
    1618:	8ff9                	and	a5,a5,a4
    161a:	7779                	lui	a4,0xffffe
    161c:	97ba                	add	a5,a5,a4
    161e:	0017b793          	seqz	a5,a5
    1622:	c29c                	sw	a5,0(a3)
    1624:	bff1                	j	1600 <__swhatbuf_r+0x22>
    1626:	04000793          	li	a5,64
    162a:	c01c                	sw	a5,0(s0)
    162c:	50f6                	lw	ra,124(sp)
    162e:	5466                	lw	s0,120(sp)
    1630:	54d6                	lw	s1,116(sp)
    1632:	4501                	li	a0,0
    1634:	6109                	addi	sp,sp,128
    1636:	8082                	ret

00001638 <__smakebuf_r>:
__smakebuf_r():
    1638:	00c5d783          	lhu	a5,12(a1)
    163c:	1101                	addi	sp,sp,-32
    163e:	cc22                	sw	s0,24(sp)
    1640:	ce06                	sw	ra,28(sp)
    1642:	ca26                	sw	s1,20(sp)
    1644:	c84a                	sw	s2,16(sp)
    1646:	8b89                	andi	a5,a5,2
    1648:	842e                	mv	s0,a1
    164a:	cf89                	beqz	a5,1664 <__smakebuf_r+0x2c>
    164c:	04740793          	addi	a5,s0,71
    1650:	c01c                	sw	a5,0(s0)
    1652:	c81c                	sw	a5,16(s0)
    1654:	4785                	li	a5,1
    1656:	c85c                	sw	a5,20(s0)
    1658:	40f2                	lw	ra,28(sp)
    165a:	4462                	lw	s0,24(sp)
    165c:	44d2                	lw	s1,20(sp)
    165e:	4942                	lw	s2,16(sp)
    1660:	6105                	addi	sp,sp,32
    1662:	8082                	ret
    1664:	0074                	addi	a3,sp,12
    1666:	0030                	addi	a2,sp,8
    1668:	84aa                	mv	s1,a0
    166a:	3f95                	jal	15de <__swhatbuf_r>
    166c:	45a2                	lw	a1,8(sp)
    166e:	892a                	mv	s2,a0
    1670:	8526                	mv	a0,s1
    1672:	2a11                	jal	1786 <_malloc_r>
    1674:	ed01                	bnez	a0,168c <__smakebuf_r+0x54>
    1676:	00c41783          	lh	a5,12(s0)
    167a:	2007f713          	andi	a4,a5,512
    167e:	ff69                	bnez	a4,1658 <__smakebuf_r+0x20>
    1680:	9bf1                	andi	a5,a5,-4
    1682:	0027e793          	ori	a5,a5,2
    1686:	00f41623          	sh	a5,12(s0)
    168a:	b7c9                	j	164c <__smakebuf_r+0x14>
    168c:	00000797          	auipc	a5,0x0
    1690:	d8c78793          	addi	a5,a5,-628 # 1418 <_cleanup_r>
    1694:	d49c                	sw	a5,40(s1)
    1696:	00c45783          	lhu	a5,12(s0)
    169a:	c008                	sw	a0,0(s0)
    169c:	c808                	sw	a0,16(s0)
    169e:	0807e793          	ori	a5,a5,128
    16a2:	00f41623          	sh	a5,12(s0)
    16a6:	47a2                	lw	a5,8(sp)
    16a8:	c85c                	sw	a5,20(s0)
    16aa:	47b2                	lw	a5,12(sp)
    16ac:	cf91                	beqz	a5,16c8 <__smakebuf_r+0x90>
    16ae:	00e41583          	lh	a1,14(s0)
    16b2:	8526                	mv	a0,s1
    16b4:	1c1000ef          	jal	ra,2074 <_isatty_r>
    16b8:	c901                	beqz	a0,16c8 <__smakebuf_r+0x90>
    16ba:	00c45783          	lhu	a5,12(s0)
    16be:	9bf1                	andi	a5,a5,-4
    16c0:	0017e793          	ori	a5,a5,1
    16c4:	00f41623          	sh	a5,12(s0)
    16c8:	00c45783          	lhu	a5,12(s0)
    16cc:	00f96933          	or	s2,s2,a5
    16d0:	01241623          	sh	s2,12(s0)
    16d4:	b751                	j	1658 <__smakebuf_r+0x20>

000016d6 <_free_r>:
_free_r():
    16d6:	c5dd                	beqz	a1,1784 <_free_r+0xae>
    16d8:	ffc5a783          	lw	a5,-4(a1)
    16dc:	1141                	addi	sp,sp,-16
    16de:	c422                	sw	s0,8(sp)
    16e0:	c606                	sw	ra,12(sp)
    16e2:	c226                	sw	s1,4(sp)
    16e4:	ffc58413          	addi	s0,a1,-4
    16e8:	0007d363          	bgez	a5,16ee <_free_r+0x18>
    16ec:	943e                	add	s0,s0,a5
    16ee:	84aa                	mv	s1,a0
    16f0:	1f3000ef          	jal	ra,20e2 <__malloc_lock>
    16f4:	20003797          	auipc	a5,0x20003
    16f8:	a9478793          	addi	a5,a5,-1388 # 20004188 <_edata>
    16fc:	439c                	lw	a5,0(a5)
    16fe:	ef91                	bnez	a5,171a <_free_r+0x44>
    1700:	00042223          	sw	zero,4(s0)
    1704:	20003797          	auipc	a5,0x20003
    1708:	a887a223          	sw	s0,-1404(a5) # 20004188 <_edata>
    170c:	4422                	lw	s0,8(sp)
    170e:	40b2                	lw	ra,12(sp)
    1710:	8526                	mv	a0,s1
    1712:	4492                	lw	s1,4(sp)
    1714:	0141                	addi	sp,sp,16
    1716:	1cf0006f          	j	20e4 <__malloc_unlock>
    171a:	00f47e63          	bgeu	s0,a5,1736 <_free_r+0x60>
    171e:	4014                	lw	a3,0(s0)
    1720:	00d40733          	add	a4,s0,a3
    1724:	00e79663          	bne	a5,a4,1730 <_free_r+0x5a>
    1728:	4398                	lw	a4,0(a5)
    172a:	43dc                	lw	a5,4(a5)
    172c:	9736                	add	a4,a4,a3
    172e:	c018                	sw	a4,0(s0)
    1730:	c05c                	sw	a5,4(s0)
    1732:	bfc9                	j	1704 <_free_r+0x2e>
    1734:	87ba                	mv	a5,a4
    1736:	43d8                	lw	a4,4(a5)
    1738:	c319                	beqz	a4,173e <_free_r+0x68>
    173a:	fee47de3          	bgeu	s0,a4,1734 <_free_r+0x5e>
    173e:	4394                	lw	a3,0(a5)
    1740:	00d78633          	add	a2,a5,a3
    1744:	00861f63          	bne	a2,s0,1762 <_free_r+0x8c>
    1748:	4010                	lw	a2,0(s0)
    174a:	96b2                	add	a3,a3,a2
    174c:	c394                	sw	a3,0(a5)
    174e:	00d78633          	add	a2,a5,a3
    1752:	fac71de3          	bne	a4,a2,170c <_free_r+0x36>
    1756:	4310                	lw	a2,0(a4)
    1758:	4358                	lw	a4,4(a4)
    175a:	96b2                	add	a3,a3,a2
    175c:	c394                	sw	a3,0(a5)
    175e:	c3d8                	sw	a4,4(a5)
    1760:	b775                	j	170c <_free_r+0x36>
    1762:	00c47563          	bgeu	s0,a2,176c <_free_r+0x96>
    1766:	47b1                	li	a5,12
    1768:	c09c                	sw	a5,0(s1)
    176a:	b74d                	j	170c <_free_r+0x36>
    176c:	4010                	lw	a2,0(s0)
    176e:	00c406b3          	add	a3,s0,a2
    1772:	00d71663          	bne	a4,a3,177e <_free_r+0xa8>
    1776:	4314                	lw	a3,0(a4)
    1778:	4358                	lw	a4,4(a4)
    177a:	96b2                	add	a3,a3,a2
    177c:	c014                	sw	a3,0(s0)
    177e:	c058                	sw	a4,4(s0)
    1780:	c3c0                	sw	s0,4(a5)
    1782:	b769                	j	170c <_free_r+0x36>
    1784:	8082                	ret

00001786 <_malloc_r>:
_malloc_r():
    1786:	1101                	addi	sp,sp,-32
    1788:	ca26                	sw	s1,20(sp)
    178a:	00358493          	addi	s1,a1,3
    178e:	98f1                	andi	s1,s1,-4
    1790:	ce06                	sw	ra,28(sp)
    1792:	cc22                	sw	s0,24(sp)
    1794:	c84a                	sw	s2,16(sp)
    1796:	c64e                	sw	s3,12(sp)
    1798:	04a1                	addi	s1,s1,8
    179a:	47b1                	li	a5,12
    179c:	04f4f363          	bgeu	s1,a5,17e2 <_malloc_r+0x5c>
    17a0:	44b1                	li	s1,12
    17a2:	04b4e263          	bltu	s1,a1,17e6 <_malloc_r+0x60>
    17a6:	892a                	mv	s2,a0
    17a8:	13b000ef          	jal	ra,20e2 <__malloc_lock>
    17ac:	80818793          	addi	a5,gp,-2040 # 20004188 <_edata>
    17b0:	4398                	lw	a4,0(a5)
    17b2:	843a                	mv	s0,a4
    17b4:	e039                	bnez	s0,17fa <_malloc_r+0x74>
    17b6:	80c18793          	addi	a5,gp,-2036 # 2000418c <__malloc_sbrk_start>
    17ba:	439c                	lw	a5,0(a5)
    17bc:	e791                	bnez	a5,17c8 <_malloc_r+0x42>
    17be:	4581                	li	a1,0
    17c0:	854a                	mv	a0,s2
    17c2:	2f81                	jal	1f12 <_sbrk_r>
    17c4:	80a1a623          	sw	a0,-2036(gp) # 2000418c <__malloc_sbrk_start>
    17c8:	85a6                	mv	a1,s1
    17ca:	854a                	mv	a0,s2
    17cc:	2799                	jal	1f12 <_sbrk_r>
    17ce:	59fd                	li	s3,-1
    17d0:	07351963          	bne	a0,s3,1842 <_malloc_r+0xbc>
    17d4:	47b1                	li	a5,12
    17d6:	00f92023          	sw	a5,0(s2)
    17da:	854a                	mv	a0,s2
    17dc:	109000ef          	jal	ra,20e4 <__malloc_unlock>
    17e0:	a029                	j	17ea <_malloc_r+0x64>
    17e2:	fc04d0e3          	bgez	s1,17a2 <_malloc_r+0x1c>
    17e6:	47b1                	li	a5,12
    17e8:	c11c                	sw	a5,0(a0)
    17ea:	4501                	li	a0,0
    17ec:	40f2                	lw	ra,28(sp)
    17ee:	4462                	lw	s0,24(sp)
    17f0:	44d2                	lw	s1,20(sp)
    17f2:	4942                	lw	s2,16(sp)
    17f4:	49b2                	lw	s3,12(sp)
    17f6:	6105                	addi	sp,sp,32
    17f8:	8082                	ret
    17fa:	401c                	lw	a5,0(s0)
    17fc:	8f85                	sub	a5,a5,s1
    17fe:	0207cf63          	bltz	a5,183c <_malloc_r+0xb6>
    1802:	46ad                	li	a3,11
    1804:	00f6f663          	bgeu	a3,a5,1810 <_malloc_r+0x8a>
    1808:	c01c                	sw	a5,0(s0)
    180a:	943e                	add	s0,s0,a5
    180c:	c004                	sw	s1,0(s0)
    180e:	a031                	j	181a <_malloc_r+0x94>
    1810:	405c                	lw	a5,4(s0)
    1812:	02871363          	bne	a4,s0,1838 <_malloc_r+0xb2>
    1816:	80f1a423          	sw	a5,-2040(gp) # 20004188 <_edata>
    181a:	854a                	mv	a0,s2
    181c:	0c9000ef          	jal	ra,20e4 <__malloc_unlock>
    1820:	00b40513          	addi	a0,s0,11
    1824:	00440793          	addi	a5,s0,4
    1828:	9961                	andi	a0,a0,-8
    182a:	40f50733          	sub	a4,a0,a5
    182e:	df5d                	beqz	a4,17ec <_malloc_r+0x66>
    1830:	943a                	add	s0,s0,a4
    1832:	8f89                	sub	a5,a5,a0
    1834:	c01c                	sw	a5,0(s0)
    1836:	bf5d                	j	17ec <_malloc_r+0x66>
    1838:	c35c                	sw	a5,4(a4)
    183a:	b7c5                	j	181a <_malloc_r+0x94>
    183c:	8722                	mv	a4,s0
    183e:	4040                	lw	s0,4(s0)
    1840:	bf95                	j	17b4 <_malloc_r+0x2e>
    1842:	00350413          	addi	s0,a0,3
    1846:	9871                	andi	s0,s0,-4
    1848:	fc8502e3          	beq	a0,s0,180c <_malloc_r+0x86>
    184c:	40a405b3          	sub	a1,s0,a0
    1850:	854a                	mv	a0,s2
    1852:	25c1                	jal	1f12 <_sbrk_r>
    1854:	fb351ce3          	bne	a0,s3,180c <_malloc_r+0x86>
    1858:	bfb5                	j	17d4 <_malloc_r+0x4e>

0000185a <__sfputc_r>:
__sfputc_r():
    185a:	461c                	lw	a5,8(a2)
    185c:	17fd                	addi	a5,a5,-1
    185e:	c61c                	sw	a5,8(a2)
    1860:	0007da63          	bgez	a5,1874 <__sfputc_r+0x1a>
    1864:	4e18                	lw	a4,24(a2)
    1866:	00e7c563          	blt	a5,a4,1870 <__sfputc_r+0x16>
    186a:	47a9                	li	a5,10
    186c:	00f59463          	bne	a1,a5,1874 <__sfputc_r+0x1a>
    1870:	fceff06f          	j	103e <__swbuf_r>
    1874:	421c                	lw	a5,0(a2)
    1876:	852e                	mv	a0,a1
    1878:	00178713          	addi	a4,a5,1
    187c:	c218                	sw	a4,0(a2)
    187e:	00b78023          	sb	a1,0(a5)
    1882:	8082                	ret

00001884 <__sfputs_r>:
__sfputs_r():
    1884:	1101                	addi	sp,sp,-32
    1886:	cc22                	sw	s0,24(sp)
    1888:	ca26                	sw	s1,20(sp)
    188a:	c84a                	sw	s2,16(sp)
    188c:	c64e                	sw	s3,12(sp)
    188e:	c452                	sw	s4,8(sp)
    1890:	ce06                	sw	ra,28(sp)
    1892:	892a                	mv	s2,a0
    1894:	89ae                	mv	s3,a1
    1896:	8432                	mv	s0,a2
    1898:	00d604b3          	add	s1,a2,a3
    189c:	5a7d                	li	s4,-1
    189e:	00941463          	bne	s0,s1,18a6 <__sfputs_r+0x22>
    18a2:	4501                	li	a0,0
    18a4:	a809                	j	18b6 <__sfputs_r+0x32>
    18a6:	00044583          	lbu	a1,0(s0)
    18aa:	864e                	mv	a2,s3
    18ac:	854a                	mv	a0,s2
    18ae:	3775                	jal	185a <__sfputc_r>
    18b0:	0405                	addi	s0,s0,1
    18b2:	ff4516e3          	bne	a0,s4,189e <__sfputs_r+0x1a>
    18b6:	40f2                	lw	ra,28(sp)
    18b8:	4462                	lw	s0,24(sp)
    18ba:	44d2                	lw	s1,20(sp)
    18bc:	4942                	lw	s2,16(sp)
    18be:	49b2                	lw	s3,12(sp)
    18c0:	4a22                	lw	s4,8(sp)
    18c2:	6105                	addi	sp,sp,32
    18c4:	8082                	ret

000018c6 <_vfiprintf_r>:
_vfiprintf_r():
    18c6:	7135                	addi	sp,sp,-160
    18c8:	cd22                	sw	s0,152(sp)
    18ca:	cb26                	sw	s1,148(sp)
    18cc:	c94a                	sw	s2,144(sp)
    18ce:	c74e                	sw	s3,140(sp)
    18d0:	cf06                	sw	ra,156(sp)
    18d2:	c552                	sw	s4,136(sp)
    18d4:	c356                	sw	s5,132(sp)
    18d6:	c15a                	sw	s6,128(sp)
    18d8:	dede                	sw	s7,124(sp)
    18da:	dce2                	sw	s8,120(sp)
    18dc:	dae6                	sw	s9,116(sp)
    18de:	89aa                	mv	s3,a0
    18e0:	84ae                	mv	s1,a1
    18e2:	8932                	mv	s2,a2
    18e4:	8436                	mv	s0,a3
    18e6:	c501                	beqz	a0,18ee <_vfiprintf_r+0x28>
    18e8:	4d1c                	lw	a5,24(a0)
    18ea:	e391                	bnez	a5,18ee <_vfiprintf_r+0x28>
    18ec:	3eb5                	jal	1468 <__sinit>
    18ee:	00001797          	auipc	a5,0x1
    18f2:	93a78793          	addi	a5,a5,-1734 # 2228 <__sf_fake_stdin>
    18f6:	0cf49b63          	bne	s1,a5,19cc <_vfiprintf_r+0x106>
    18fa:	0049a483          	lw	s1,4(s3)
    18fe:	00c4d783          	lhu	a5,12(s1)
    1902:	8ba1                	andi	a5,a5,8
    1904:	c7f5                	beqz	a5,19f0 <_vfiprintf_r+0x12a>
    1906:	489c                	lw	a5,16(s1)
    1908:	c7e5                	beqz	a5,19f0 <_vfiprintf_r+0x12a>
    190a:	02000793          	li	a5,32
    190e:	02f104a3          	sb	a5,41(sp)
    1912:	03000793          	li	a5,48
    1916:	d202                	sw	zero,36(sp)
    1918:	02f10523          	sb	a5,42(sp)
    191c:	c622                	sw	s0,12(sp)
    191e:	02500b93          	li	s7,37
    1922:	00001a97          	auipc	s5,0x1
    1926:	946a8a93          	addi	s5,s5,-1722 # 2268 <__sf_fake_stdout+0x20>
    192a:	4c05                	li	s8,1
    192c:	4b29                	li	s6,10
    192e:	844a                	mv	s0,s2
    1930:	00044783          	lbu	a5,0(s0)
    1934:	c399                	beqz	a5,193a <_vfiprintf_r+0x74>
    1936:	0f779063          	bne	a5,s7,1a16 <_vfiprintf_r+0x150>
    193a:	41240cb3          	sub	s9,s0,s2
    193e:	000c8d63          	beqz	s9,1958 <_vfiprintf_r+0x92>
    1942:	86e6                	mv	a3,s9
    1944:	864a                	mv	a2,s2
    1946:	85a6                	mv	a1,s1
    1948:	854e                	mv	a0,s3
    194a:	3f2d                	jal	1884 <__sfputs_r>
    194c:	57fd                	li	a5,-1
    194e:	1ef50663          	beq	a0,a5,1b3a <_vfiprintf_r+0x274>
    1952:	5692                	lw	a3,36(sp)
    1954:	96e6                	add	a3,a3,s9
    1956:	d236                	sw	a3,36(sp)
    1958:	00044783          	lbu	a5,0(s0)
    195c:	1c078f63          	beqz	a5,1b3a <_vfiprintf_r+0x274>
    1960:	57fd                	li	a5,-1
    1962:	00140913          	addi	s2,s0,1
    1966:	c802                	sw	zero,16(sp)
    1968:	ce02                	sw	zero,28(sp)
    196a:	ca3e                	sw	a5,20(sp)
    196c:	cc02                	sw	zero,24(sp)
    196e:	040109a3          	sb	zero,83(sp)
    1972:	d482                	sw	zero,104(sp)
    1974:	00094583          	lbu	a1,0(s2)
    1978:	4615                	li	a2,5
    197a:	8556                	mv	a0,s5
    197c:	27b1                	jal	20c8 <memchr>
    197e:	00190413          	addi	s0,s2,1
    1982:	47c2                	lw	a5,16(sp)
    1984:	e959                	bnez	a0,1a1a <_vfiprintf_r+0x154>
    1986:	0107f713          	andi	a4,a5,16
    198a:	c709                	beqz	a4,1994 <_vfiprintf_r+0xce>
    198c:	02000713          	li	a4,32
    1990:	04e109a3          	sb	a4,83(sp)
    1994:	0087f713          	andi	a4,a5,8
    1998:	c709                	beqz	a4,19a2 <_vfiprintf_r+0xdc>
    199a:	02b00713          	li	a4,43
    199e:	04e109a3          	sb	a4,83(sp)
    19a2:	00094683          	lbu	a3,0(s2)
    19a6:	02a00713          	li	a4,42
    19aa:	08e68063          	beq	a3,a4,1a2a <_vfiprintf_r+0x164>
    19ae:	47f2                	lw	a5,28(sp)
    19b0:	844a                	mv	s0,s2
    19b2:	4681                	li	a3,0
    19b4:	4625                	li	a2,9
    19b6:	00044703          	lbu	a4,0(s0)
    19ba:	00140593          	addi	a1,s0,1
    19be:	fd070713          	addi	a4,a4,-48 # ffffdfd0 <_eusrstack+0xdfff5fd0>
    19c2:	0ae67963          	bgeu	a2,a4,1a74 <_vfiprintf_r+0x1ae>
    19c6:	cab5                	beqz	a3,1a3a <_vfiprintf_r+0x174>
    19c8:	ce3e                	sw	a5,28(sp)
    19ca:	a885                	j	1a3a <_vfiprintf_r+0x174>
    19cc:	00001797          	auipc	a5,0x1
    19d0:	87c78793          	addi	a5,a5,-1924 # 2248 <__sf_fake_stdout>
    19d4:	00f49563          	bne	s1,a5,19de <_vfiprintf_r+0x118>
    19d8:	0089a483          	lw	s1,8(s3)
    19dc:	b70d                	j	18fe <_vfiprintf_r+0x38>
    19de:	00001797          	auipc	a5,0x1
    19e2:	82a78793          	addi	a5,a5,-2006 # 2208 <__sf_fake_stderr>
    19e6:	f0f49ce3          	bne	s1,a5,18fe <_vfiprintf_r+0x38>
    19ea:	00c9a483          	lw	s1,12(s3)
    19ee:	bf01                	j	18fe <_vfiprintf_r+0x38>
    19f0:	85a6                	mv	a1,s1
    19f2:	854e                	mv	a0,s3
    19f4:	f0aff0ef          	jal	ra,10fe <__swsetup_r>
    19f8:	d909                	beqz	a0,190a <_vfiprintf_r+0x44>
    19fa:	557d                	li	a0,-1
    19fc:	40fa                	lw	ra,156(sp)
    19fe:	446a                	lw	s0,152(sp)
    1a00:	44da                	lw	s1,148(sp)
    1a02:	494a                	lw	s2,144(sp)
    1a04:	49ba                	lw	s3,140(sp)
    1a06:	4a2a                	lw	s4,136(sp)
    1a08:	4a9a                	lw	s5,132(sp)
    1a0a:	4b0a                	lw	s6,128(sp)
    1a0c:	5bf6                	lw	s7,124(sp)
    1a0e:	5c66                	lw	s8,120(sp)
    1a10:	5cd6                	lw	s9,116(sp)
    1a12:	610d                	addi	sp,sp,160
    1a14:	8082                	ret
    1a16:	0405                	addi	s0,s0,1
    1a18:	bf21                	j	1930 <_vfiprintf_r+0x6a>
    1a1a:	41550533          	sub	a0,a0,s5
    1a1e:	00ac1533          	sll	a0,s8,a0
    1a22:	8fc9                	or	a5,a5,a0
    1a24:	c83e                	sw	a5,16(sp)
    1a26:	8922                	mv	s2,s0
    1a28:	b7b1                	j	1974 <_vfiprintf_r+0xae>
    1a2a:	4732                	lw	a4,12(sp)
    1a2c:	00470693          	addi	a3,a4,4
    1a30:	4318                	lw	a4,0(a4)
    1a32:	c636                	sw	a3,12(sp)
    1a34:	02074963          	bltz	a4,1a66 <_vfiprintf_r+0x1a0>
    1a38:	ce3a                	sw	a4,28(sp)
    1a3a:	00044703          	lbu	a4,0(s0)
    1a3e:	02e00793          	li	a5,46
    1a42:	04f71f63          	bne	a4,a5,1aa0 <_vfiprintf_r+0x1da>
    1a46:	00144703          	lbu	a4,1(s0)
    1a4a:	02a00793          	li	a5,42
    1a4e:	02f71b63          	bne	a4,a5,1a84 <_vfiprintf_r+0x1be>
    1a52:	47b2                	lw	a5,12(sp)
    1a54:	0409                	addi	s0,s0,2
    1a56:	00478713          	addi	a4,a5,4
    1a5a:	439c                	lw	a5,0(a5)
    1a5c:	c63a                	sw	a4,12(sp)
    1a5e:	0207c163          	bltz	a5,1a80 <_vfiprintf_r+0x1ba>
    1a62:	ca3e                	sw	a5,20(sp)
    1a64:	a835                	j	1aa0 <_vfiprintf_r+0x1da>
    1a66:	40e00733          	neg	a4,a4
    1a6a:	0027e793          	ori	a5,a5,2
    1a6e:	ce3a                	sw	a4,28(sp)
    1a70:	c83e                	sw	a5,16(sp)
    1a72:	b7e1                	j	1a3a <_vfiprintf_r+0x174>
    1a74:	036787b3          	mul	a5,a5,s6
    1a78:	4685                	li	a3,1
    1a7a:	842e                	mv	s0,a1
    1a7c:	97ba                	add	a5,a5,a4
    1a7e:	bf25                	j	19b6 <_vfiprintf_r+0xf0>
    1a80:	57fd                	li	a5,-1
    1a82:	b7c5                	j	1a62 <_vfiprintf_r+0x19c>
    1a84:	0405                	addi	s0,s0,1
    1a86:	ca02                	sw	zero,20(sp)
    1a88:	4681                	li	a3,0
    1a8a:	4781                	li	a5,0
    1a8c:	4625                	li	a2,9
    1a8e:	00044703          	lbu	a4,0(s0)
    1a92:	00140593          	addi	a1,s0,1
    1a96:	fd070713          	addi	a4,a4,-48
    1a9a:	06e67663          	bgeu	a2,a4,1b06 <_vfiprintf_r+0x240>
    1a9e:	f2f1                	bnez	a3,1a62 <_vfiprintf_r+0x19c>
    1aa0:	00044583          	lbu	a1,0(s0)
    1aa4:	460d                	li	a2,3
    1aa6:	00000517          	auipc	a0,0x0
    1aaa:	7ca50513          	addi	a0,a0,1994 # 2270 <__sf_fake_stdout+0x28>
    1aae:	2d29                	jal	20c8 <memchr>
    1ab0:	cd11                	beqz	a0,1acc <_vfiprintf_r+0x206>
    1ab2:	00000797          	auipc	a5,0x0
    1ab6:	7be78793          	addi	a5,a5,1982 # 2270 <__sf_fake_stdout+0x28>
    1aba:	8d1d                	sub	a0,a0,a5
    1abc:	04000793          	li	a5,64
    1ac0:	00a797b3          	sll	a5,a5,a0
    1ac4:	4542                	lw	a0,16(sp)
    1ac6:	0405                	addi	s0,s0,1
    1ac8:	8d5d                	or	a0,a0,a5
    1aca:	c82a                	sw	a0,16(sp)
    1acc:	00044583          	lbu	a1,0(s0)
    1ad0:	4619                	li	a2,6
    1ad2:	00000517          	auipc	a0,0x0
    1ad6:	7a250513          	addi	a0,a0,1954 # 2274 <__sf_fake_stdout+0x2c>
    1ada:	00140913          	addi	s2,s0,1
    1ade:	02b10423          	sb	a1,40(sp)
    1ae2:	23dd                	jal	20c8 <memchr>
    1ae4:	c13d                	beqz	a0,1b4a <_vfiprintf_r+0x284>
    1ae6:	ffffe797          	auipc	a5,0xffffe
    1aea:	51a78793          	addi	a5,a5,1306 # 0 <_sinit>
    1aee:	e795                	bnez	a5,1b1a <_vfiprintf_r+0x254>
    1af0:	4742                	lw	a4,16(sp)
    1af2:	47b2                	lw	a5,12(sp)
    1af4:	10077713          	andi	a4,a4,256
    1af8:	cf09                	beqz	a4,1b12 <_vfiprintf_r+0x24c>
    1afa:	0791                	addi	a5,a5,4
    1afc:	c63e                	sw	a5,12(sp)
    1afe:	5792                	lw	a5,36(sp)
    1b00:	97d2                	add	a5,a5,s4
    1b02:	d23e                	sw	a5,36(sp)
    1b04:	b52d                	j	192e <_vfiprintf_r+0x68>
    1b06:	036787b3          	mul	a5,a5,s6
    1b0a:	4685                	li	a3,1
    1b0c:	842e                	mv	s0,a1
    1b0e:	97ba                	add	a5,a5,a4
    1b10:	bfbd                	j	1a8e <_vfiprintf_r+0x1c8>
    1b12:	079d                	addi	a5,a5,7
    1b14:	9be1                	andi	a5,a5,-8
    1b16:	07a1                	addi	a5,a5,8
    1b18:	b7d5                	j	1afc <_vfiprintf_r+0x236>
    1b1a:	0078                	addi	a4,sp,12
    1b1c:	00000697          	auipc	a3,0x0
    1b20:	d6868693          	addi	a3,a3,-664 # 1884 <__sfputs_r>
    1b24:	8626                	mv	a2,s1
    1b26:	080c                	addi	a1,sp,16
    1b28:	854e                	mv	a0,s3
    1b2a:	00000097          	auipc	ra,0x0
    1b2e:	000000e7          	jalr	zero # 0 <_sinit>
    1b32:	57fd                	li	a5,-1
    1b34:	8a2a                	mv	s4,a0
    1b36:	fcf514e3          	bne	a0,a5,1afe <_vfiprintf_r+0x238>
    1b3a:	00c4d783          	lhu	a5,12(s1)
    1b3e:	0407f793          	andi	a5,a5,64
    1b42:	ea079ce3          	bnez	a5,19fa <_vfiprintf_r+0x134>
    1b46:	5512                	lw	a0,36(sp)
    1b48:	bd55                	j	19fc <_vfiprintf_r+0x136>
    1b4a:	0078                	addi	a4,sp,12
    1b4c:	00000697          	auipc	a3,0x0
    1b50:	d3868693          	addi	a3,a3,-712 # 1884 <__sfputs_r>
    1b54:	8626                	mv	a2,s1
    1b56:	080c                	addi	a1,sp,16
    1b58:	854e                	mv	a0,s3
    1b5a:	2a01                	jal	1c6a <_printf_i>
    1b5c:	bfd9                	j	1b32 <_vfiprintf_r+0x26c>

00001b5e <_printf_common>:
_printf_common():
    1b5e:	7179                	addi	sp,sp,-48
    1b60:	ca56                	sw	s5,20(sp)
    1b62:	499c                	lw	a5,16(a1)
    1b64:	8aba                	mv	s5,a4
    1b66:	4598                	lw	a4,8(a1)
    1b68:	d422                	sw	s0,40(sp)
    1b6a:	d226                	sw	s1,36(sp)
    1b6c:	ce4e                	sw	s3,28(sp)
    1b6e:	cc52                	sw	s4,24(sp)
    1b70:	d606                	sw	ra,44(sp)
    1b72:	d04a                	sw	s2,32(sp)
    1b74:	c85a                	sw	s6,16(sp)
    1b76:	c65e                	sw	s7,12(sp)
    1b78:	89aa                	mv	s3,a0
    1b7a:	842e                	mv	s0,a1
    1b7c:	84b2                	mv	s1,a2
    1b7e:	8a36                	mv	s4,a3
    1b80:	00e7d363          	bge	a5,a4,1b86 <_printf_common+0x28>
    1b84:	87ba                	mv	a5,a4
    1b86:	c09c                	sw	a5,0(s1)
    1b88:	04344703          	lbu	a4,67(s0)
    1b8c:	c319                	beqz	a4,1b92 <_printf_common+0x34>
    1b8e:	0785                	addi	a5,a5,1
    1b90:	c09c                	sw	a5,0(s1)
    1b92:	401c                	lw	a5,0(s0)
    1b94:	0207f793          	andi	a5,a5,32
    1b98:	c781                	beqz	a5,1ba0 <_printf_common+0x42>
    1b9a:	409c                	lw	a5,0(s1)
    1b9c:	0789                	addi	a5,a5,2
    1b9e:	c09c                	sw	a5,0(s1)
    1ba0:	00042903          	lw	s2,0(s0)
    1ba4:	00697913          	andi	s2,s2,6
    1ba8:	00091a63          	bnez	s2,1bbc <_printf_common+0x5e>
    1bac:	01940b13          	addi	s6,s0,25
    1bb0:	5bfd                	li	s7,-1
    1bb2:	445c                	lw	a5,12(s0)
    1bb4:	4098                	lw	a4,0(s1)
    1bb6:	8f99                	sub	a5,a5,a4
    1bb8:	04f94c63          	blt	s2,a5,1c10 <_printf_common+0xb2>
    1bbc:	401c                	lw	a5,0(s0)
    1bbe:	04344683          	lbu	a3,67(s0)
    1bc2:	0207f793          	andi	a5,a5,32
    1bc6:	00d036b3          	snez	a3,a3
    1bca:	eba5                	bnez	a5,1c3a <_printf_common+0xdc>
    1bcc:	04340613          	addi	a2,s0,67
    1bd0:	85d2                	mv	a1,s4
    1bd2:	854e                	mv	a0,s3
    1bd4:	9a82                	jalr	s5
    1bd6:	57fd                	li	a5,-1
    1bd8:	04f50363          	beq	a0,a5,1c1e <_printf_common+0xc0>
    1bdc:	401c                	lw	a5,0(s0)
    1bde:	4611                	li	a2,4
    1be0:	4098                	lw	a4,0(s1)
    1be2:	8b99                	andi	a5,a5,6
    1be4:	4454                	lw	a3,12(s0)
    1be6:	4481                	li	s1,0
    1be8:	00c79763          	bne	a5,a2,1bf6 <_printf_common+0x98>
    1bec:	40e684b3          	sub	s1,a3,a4
    1bf0:	0004d363          	bgez	s1,1bf6 <_printf_common+0x98>
    1bf4:	4481                	li	s1,0
    1bf6:	441c                	lw	a5,8(s0)
    1bf8:	4818                	lw	a4,16(s0)
    1bfa:	00f75463          	bge	a4,a5,1c02 <_printf_common+0xa4>
    1bfe:	8f99                	sub	a5,a5,a4
    1c00:	94be                	add	s1,s1,a5
    1c02:	4901                	li	s2,0
    1c04:	0469                	addi	s0,s0,26
    1c06:	5b7d                	li	s6,-1
    1c08:	05249863          	bne	s1,s2,1c58 <_printf_common+0xfa>
    1c0c:	4501                	li	a0,0
    1c0e:	a809                	j	1c20 <_printf_common+0xc2>
    1c10:	4685                	li	a3,1
    1c12:	865a                	mv	a2,s6
    1c14:	85d2                	mv	a1,s4
    1c16:	854e                	mv	a0,s3
    1c18:	9a82                	jalr	s5
    1c1a:	01751e63          	bne	a0,s7,1c36 <_printf_common+0xd8>
    1c1e:	557d                	li	a0,-1
    1c20:	50b2                	lw	ra,44(sp)
    1c22:	5422                	lw	s0,40(sp)
    1c24:	5492                	lw	s1,36(sp)
    1c26:	5902                	lw	s2,32(sp)
    1c28:	49f2                	lw	s3,28(sp)
    1c2a:	4a62                	lw	s4,24(sp)
    1c2c:	4ad2                	lw	s5,20(sp)
    1c2e:	4b42                	lw	s6,16(sp)
    1c30:	4bb2                	lw	s7,12(sp)
    1c32:	6145                	addi	sp,sp,48
    1c34:	8082                	ret
    1c36:	0905                	addi	s2,s2,1
    1c38:	bfad                	j	1bb2 <_printf_common+0x54>
    1c3a:	00d40733          	add	a4,s0,a3
    1c3e:	03000613          	li	a2,48
    1c42:	04c701a3          	sb	a2,67(a4)
    1c46:	04544703          	lbu	a4,69(s0)
    1c4a:	00168793          	addi	a5,a3,1
    1c4e:	97a2                	add	a5,a5,s0
    1c50:	0689                	addi	a3,a3,2
    1c52:	04e781a3          	sb	a4,67(a5)
    1c56:	bf9d                	j	1bcc <_printf_common+0x6e>
    1c58:	4685                	li	a3,1
    1c5a:	8622                	mv	a2,s0
    1c5c:	85d2                	mv	a1,s4
    1c5e:	854e                	mv	a0,s3
    1c60:	9a82                	jalr	s5
    1c62:	fb650ee3          	beq	a0,s6,1c1e <_printf_common+0xc0>
    1c66:	0905                	addi	s2,s2,1
    1c68:	b745                	j	1c08 <_printf_common+0xaa>

00001c6a <_printf_i>:
_printf_i():
    1c6a:	7179                	addi	sp,sp,-48
    1c6c:	d422                	sw	s0,40(sp)
    1c6e:	d226                	sw	s1,36(sp)
    1c70:	d04a                	sw	s2,32(sp)
    1c72:	ce4e                	sw	s3,28(sp)
    1c74:	d606                	sw	ra,44(sp)
    1c76:	cc52                	sw	s4,24(sp)
    1c78:	ca56                	sw	s5,20(sp)
    1c7a:	c85a                	sw	s6,16(sp)
    1c7c:	89b6                	mv	s3,a3
    1c7e:	0185c683          	lbu	a3,24(a1)
    1c82:	06900793          	li	a5,105
    1c86:	8932                	mv	s2,a2
    1c88:	84aa                	mv	s1,a0
    1c8a:	842e                	mv	s0,a1
    1c8c:	04358613          	addi	a2,a1,67
    1c90:	02f68d63          	beq	a3,a5,1cca <_printf_i+0x60>
    1c94:	06d7e263          	bltu	a5,a3,1cf8 <_printf_i+0x8e>
    1c98:	05800793          	li	a5,88
    1c9c:	18f68763          	beq	a3,a5,1e2a <_printf_i+0x1c0>
    1ca0:	00d7ed63          	bltu	a5,a3,1cba <_printf_i+0x50>
    1ca4:	22068063          	beqz	a3,1ec4 <_printf_i+0x25a>
    1ca8:	04300793          	li	a5,67
    1cac:	0af68e63          	beq	a3,a5,1d68 <_printf_i+0xfe>
    1cb0:	04240a93          	addi	s5,s0,66
    1cb4:	04d40123          	sb	a3,66(s0)
    1cb8:	a0c9                	j	1d7a <_printf_i+0x110>
    1cba:	06300793          	li	a5,99
    1cbe:	0af68563          	beq	a3,a5,1d68 <_printf_i+0xfe>
    1cc2:	06400793          	li	a5,100
    1cc6:	fef695e3          	bne	a3,a5,1cb0 <_printf_i+0x46>
    1cca:	401c                	lw	a5,0(s0)
    1ccc:	4308                	lw	a0,0(a4)
    1cce:	0807f693          	andi	a3,a5,128
    1cd2:	00450593          	addi	a1,a0,4
    1cd6:	c6c5                	beqz	a3,1d7e <_printf_i+0x114>
    1cd8:	411c                	lw	a5,0(a0)
    1cda:	c30c                	sw	a1,0(a4)
    1cdc:	0007d863          	bgez	a5,1cec <_printf_i+0x82>
    1ce0:	02d00713          	li	a4,45
    1ce4:	40f007b3          	neg	a5,a5
    1ce8:	04e401a3          	sb	a4,67(s0)
    1cec:	00000697          	auipc	a3,0x0
    1cf0:	59068693          	addi	a3,a3,1424 # 227c <__sf_fake_stdout+0x34>
    1cf4:	4729                	li	a4,10
    1cf6:	a86d                	j	1db0 <_printf_i+0x146>
    1cf8:	07000793          	li	a5,112
    1cfc:	16f68363          	beq	a3,a5,1e62 <_printf_i+0x1f8>
    1d00:	02d7e563          	bltu	a5,a3,1d2a <_printf_i+0xc0>
    1d04:	06e00793          	li	a5,110
    1d08:	18f68a63          	beq	a3,a5,1e9c <_printf_i+0x232>
    1d0c:	06f00793          	li	a5,111
    1d10:	faf690e3          	bne	a3,a5,1cb0 <_printf_i+0x46>
    1d14:	400c                	lw	a1,0(s0)
    1d16:	431c                	lw	a5,0(a4)
    1d18:	0805f813          	andi	a6,a1,128
    1d1c:	00478513          	addi	a0,a5,4
    1d20:	06080763          	beqz	a6,1d8e <_printf_i+0x124>
    1d24:	c308                	sw	a0,0(a4)
    1d26:	439c                	lw	a5,0(a5)
    1d28:	a88d                	j	1d9a <_printf_i+0x130>
    1d2a:	07500793          	li	a5,117
    1d2e:	fef683e3          	beq	a3,a5,1d14 <_printf_i+0xaa>
    1d32:	07800793          	li	a5,120
    1d36:	12f68a63          	beq	a3,a5,1e6a <_printf_i+0x200>
    1d3a:	07300793          	li	a5,115
    1d3e:	f6f699e3          	bne	a3,a5,1cb0 <_printf_i+0x46>
    1d42:	431c                	lw	a5,0(a4)
    1d44:	41d0                	lw	a2,4(a1)
    1d46:	4581                	li	a1,0
    1d48:	00478693          	addi	a3,a5,4
    1d4c:	c314                	sw	a3,0(a4)
    1d4e:	0007aa83          	lw	s5,0(a5)
    1d52:	8556                	mv	a0,s5
    1d54:	2e95                	jal	20c8 <memchr>
    1d56:	c501                	beqz	a0,1d5e <_printf_i+0xf4>
    1d58:	41550533          	sub	a0,a0,s5
    1d5c:	c048                	sw	a0,4(s0)
    1d5e:	405c                	lw	a5,4(s0)
    1d60:	c81c                	sw	a5,16(s0)
    1d62:	040401a3          	sb	zero,67(s0)
    1d66:	a871                	j	1e02 <_printf_i+0x198>
    1d68:	431c                	lw	a5,0(a4)
    1d6a:	04240a93          	addi	s5,s0,66
    1d6e:	00478693          	addi	a3,a5,4
    1d72:	439c                	lw	a5,0(a5)
    1d74:	c314                	sw	a3,0(a4)
    1d76:	04f40123          	sb	a5,66(s0)
    1d7a:	4785                	li	a5,1
    1d7c:	b7d5                	j	1d60 <_printf_i+0xf6>
    1d7e:	0407f693          	andi	a3,a5,64
    1d82:	411c                	lw	a5,0(a0)
    1d84:	c30c                	sw	a1,0(a4)
    1d86:	dab9                	beqz	a3,1cdc <_printf_i+0x72>
    1d88:	07c2                	slli	a5,a5,0x10
    1d8a:	87c1                	srai	a5,a5,0x10
    1d8c:	bf81                	j	1cdc <_printf_i+0x72>
    1d8e:	0405f593          	andi	a1,a1,64
    1d92:	c308                	sw	a0,0(a4)
    1d94:	d9c9                	beqz	a1,1d26 <_printf_i+0xbc>
    1d96:	0007d783          	lhu	a5,0(a5)
    1d9a:	06f00713          	li	a4,111
    1d9e:	0ee68763          	beq	a3,a4,1e8c <_printf_i+0x222>
    1da2:	00000697          	auipc	a3,0x0
    1da6:	4da68693          	addi	a3,a3,1242 # 227c <__sf_fake_stdout+0x34>
    1daa:	4729                	li	a4,10
    1dac:	040401a3          	sb	zero,67(s0)
    1db0:	404c                	lw	a1,4(s0)
    1db2:	c40c                	sw	a1,8(s0)
    1db4:	0005c563          	bltz	a1,1dbe <_printf_i+0x154>
    1db8:	4008                	lw	a0,0(s0)
    1dba:	996d                	andi	a0,a0,-5
    1dbc:	c008                	sw	a0,0(s0)
    1dbe:	e399                	bnez	a5,1dc4 <_printf_i+0x15a>
    1dc0:	8ab2                	mv	s5,a2
    1dc2:	cd91                	beqz	a1,1dde <_printf_i+0x174>
    1dc4:	8ab2                	mv	s5,a2
    1dc6:	02e7f5b3          	remu	a1,a5,a4
    1dca:	1afd                	addi	s5,s5,-1
    1dcc:	95b6                	add	a1,a1,a3
    1dce:	0005c583          	lbu	a1,0(a1)
    1dd2:	00ba8023          	sb	a1,0(s5)
    1dd6:	02e7d5b3          	divu	a1,a5,a4
    1dda:	0ae7ff63          	bgeu	a5,a4,1e98 <_printf_i+0x22e>
    1dde:	47a1                	li	a5,8
    1de0:	00f71e63          	bne	a4,a5,1dfc <_printf_i+0x192>
    1de4:	401c                	lw	a5,0(s0)
    1de6:	8b85                	andi	a5,a5,1
    1de8:	cb91                	beqz	a5,1dfc <_printf_i+0x192>
    1dea:	4058                	lw	a4,4(s0)
    1dec:	481c                	lw	a5,16(s0)
    1dee:	00e7c763          	blt	a5,a4,1dfc <_printf_i+0x192>
    1df2:	03000793          	li	a5,48
    1df6:	fefa8fa3          	sb	a5,-1(s5)
    1dfa:	1afd                	addi	s5,s5,-1
    1dfc:	41560633          	sub	a2,a2,s5
    1e00:	c810                	sw	a2,16(s0)
    1e02:	874e                	mv	a4,s3
    1e04:	86ca                	mv	a3,s2
    1e06:	0070                	addi	a2,sp,12
    1e08:	85a2                	mv	a1,s0
    1e0a:	8526                	mv	a0,s1
    1e0c:	3b89                	jal	1b5e <_printf_common>
    1e0e:	5a7d                	li	s4,-1
    1e10:	0b451e63          	bne	a0,s4,1ecc <_printf_i+0x262>
    1e14:	557d                	li	a0,-1
    1e16:	50b2                	lw	ra,44(sp)
    1e18:	5422                	lw	s0,40(sp)
    1e1a:	5492                	lw	s1,36(sp)
    1e1c:	5902                	lw	s2,32(sp)
    1e1e:	49f2                	lw	s3,28(sp)
    1e20:	4a62                	lw	s4,24(sp)
    1e22:	4ad2                	lw	s5,20(sp)
    1e24:	4b42                	lw	s6,16(sp)
    1e26:	6145                	addi	sp,sp,48
    1e28:	8082                	ret
    1e2a:	04d582a3          	sb	a3,69(a1)
    1e2e:	00000697          	auipc	a3,0x0
    1e32:	44e68693          	addi	a3,a3,1102 # 227c <__sf_fake_stdout+0x34>
    1e36:	400c                	lw	a1,0(s0)
    1e38:	4308                	lw	a0,0(a4)
    1e3a:	0805f813          	andi	a6,a1,128
    1e3e:	411c                	lw	a5,0(a0)
    1e40:	0511                	addi	a0,a0,4
    1e42:	02080d63          	beqz	a6,1e7c <_printf_i+0x212>
    1e46:	c308                	sw	a0,0(a4)
    1e48:	0015f713          	andi	a4,a1,1
    1e4c:	c701                	beqz	a4,1e54 <_printf_i+0x1ea>
    1e4e:	0205e593          	ori	a1,a1,32
    1e52:	c00c                	sw	a1,0(s0)
    1e54:	4741                	li	a4,16
    1e56:	fbb9                	bnez	a5,1dac <_printf_i+0x142>
    1e58:	400c                	lw	a1,0(s0)
    1e5a:	fdf5f593          	andi	a1,a1,-33
    1e5e:	c00c                	sw	a1,0(s0)
    1e60:	b7b1                	j	1dac <_printf_i+0x142>
    1e62:	419c                	lw	a5,0(a1)
    1e64:	0207e793          	ori	a5,a5,32
    1e68:	c19c                	sw	a5,0(a1)
    1e6a:	07800793          	li	a5,120
    1e6e:	04f402a3          	sb	a5,69(s0)
    1e72:	00000697          	auipc	a3,0x0
    1e76:	41e68693          	addi	a3,a3,1054 # 2290 <__sf_fake_stdout+0x48>
    1e7a:	bf75                	j	1e36 <_printf_i+0x1cc>
    1e7c:	0405f813          	andi	a6,a1,64
    1e80:	c308                	sw	a0,0(a4)
    1e82:	fc0803e3          	beqz	a6,1e48 <_printf_i+0x1de>
    1e86:	07c2                	slli	a5,a5,0x10
    1e88:	83c1                	srli	a5,a5,0x10
    1e8a:	bf7d                	j	1e48 <_printf_i+0x1de>
    1e8c:	00000697          	auipc	a3,0x0
    1e90:	3f068693          	addi	a3,a3,1008 # 227c <__sf_fake_stdout+0x34>
    1e94:	4721                	li	a4,8
    1e96:	bf19                	j	1dac <_printf_i+0x142>
    1e98:	87ae                	mv	a5,a1
    1e9a:	b735                	j	1dc6 <_printf_i+0x15c>
    1e9c:	4194                	lw	a3,0(a1)
    1e9e:	431c                	lw	a5,0(a4)
    1ea0:	49cc                	lw	a1,20(a1)
    1ea2:	0806f813          	andi	a6,a3,128
    1ea6:	00478513          	addi	a0,a5,4
    1eaa:	00080663          	beqz	a6,1eb6 <_printf_i+0x24c>
    1eae:	c308                	sw	a0,0(a4)
    1eb0:	439c                	lw	a5,0(a5)
    1eb2:	c38c                	sw	a1,0(a5)
    1eb4:	a801                	j	1ec4 <_printf_i+0x25a>
    1eb6:	c308                	sw	a0,0(a4)
    1eb8:	0406f693          	andi	a3,a3,64
    1ebc:	439c                	lw	a5,0(a5)
    1ebe:	daf5                	beqz	a3,1eb2 <_printf_i+0x248>
    1ec0:	00b79023          	sh	a1,0(a5)
    1ec4:	00042823          	sw	zero,16(s0)
    1ec8:	8ab2                	mv	s5,a2
    1eca:	bf25                	j	1e02 <_printf_i+0x198>
    1ecc:	4814                	lw	a3,16(s0)
    1ece:	8656                	mv	a2,s5
    1ed0:	85ca                	mv	a1,s2
    1ed2:	8526                	mv	a0,s1
    1ed4:	9982                	jalr	s3
    1ed6:	f3450fe3          	beq	a0,s4,1e14 <_printf_i+0x1aa>
    1eda:	401c                	lw	a5,0(s0)
    1edc:	8b89                	andi	a5,a5,2
    1ede:	e78d                	bnez	a5,1f08 <_printf_i+0x29e>
    1ee0:	47b2                	lw	a5,12(sp)
    1ee2:	4448                	lw	a0,12(s0)
    1ee4:	f2f559e3          	bge	a0,a5,1e16 <_printf_i+0x1ac>
    1ee8:	853e                	mv	a0,a5
    1eea:	b735                	j	1e16 <_printf_i+0x1ac>
    1eec:	4685                	li	a3,1
    1eee:	8656                	mv	a2,s5
    1ef0:	85ca                	mv	a1,s2
    1ef2:	8526                	mv	a0,s1
    1ef4:	9982                	jalr	s3
    1ef6:	f1650fe3          	beq	a0,s6,1e14 <_printf_i+0x1aa>
    1efa:	0a05                	addi	s4,s4,1
    1efc:	445c                	lw	a5,12(s0)
    1efe:	4732                	lw	a4,12(sp)
    1f00:	8f99                	sub	a5,a5,a4
    1f02:	fefa45e3          	blt	s4,a5,1eec <_printf_i+0x282>
    1f06:	bfe9                	j	1ee0 <_printf_i+0x276>
    1f08:	4a01                	li	s4,0
    1f0a:	01940a93          	addi	s5,s0,25
    1f0e:	5b7d                	li	s6,-1
    1f10:	b7f5                	j	1efc <_printf_i+0x292>

00001f12 <_sbrk_r>:
_sbrk_r():
    1f12:	1141                	addi	sp,sp,-16
    1f14:	c422                	sw	s0,8(sp)
    1f16:	842a                	mv	s0,a0
    1f18:	852e                	mv	a0,a1
    1f1a:	8001aa23          	sw	zero,-2028(gp) # 20004194 <errno>
    1f1e:	c606                	sw	ra,12(sp)
    1f20:	243d                	jal	214e <_sbrk>
    1f22:	57fd                	li	a5,-1
    1f24:	00f51763          	bne	a0,a5,1f32 <_sbrk_r+0x20>
    1f28:	81418793          	addi	a5,gp,-2028 # 20004194 <errno>
    1f2c:	439c                	lw	a5,0(a5)
    1f2e:	c391                	beqz	a5,1f32 <_sbrk_r+0x20>
    1f30:	c01c                	sw	a5,0(s0)
    1f32:	40b2                	lw	ra,12(sp)
    1f34:	4422                	lw	s0,8(sp)
    1f36:	0141                	addi	sp,sp,16
    1f38:	8082                	ret

00001f3a <__sread>:
__sread():
    1f3a:	1141                	addi	sp,sp,-16
    1f3c:	c422                	sw	s0,8(sp)
    1f3e:	842e                	mv	s0,a1
    1f40:	00e59583          	lh	a1,14(a1)
    1f44:	c606                	sw	ra,12(sp)
    1f46:	2245                	jal	20e6 <_read_r>
    1f48:	00054963          	bltz	a0,1f5a <__sread+0x20>
    1f4c:	487c                	lw	a5,84(s0)
    1f4e:	97aa                	add	a5,a5,a0
    1f50:	c87c                	sw	a5,84(s0)
    1f52:	40b2                	lw	ra,12(sp)
    1f54:	4422                	lw	s0,8(sp)
    1f56:	0141                	addi	sp,sp,16
    1f58:	8082                	ret
    1f5a:	00c45783          	lhu	a5,12(s0)
    1f5e:	777d                	lui	a4,0xfffff
    1f60:	177d                	addi	a4,a4,-1
    1f62:	8ff9                	and	a5,a5,a4
    1f64:	00f41623          	sh	a5,12(s0)
    1f68:	b7ed                	j	1f52 <__sread+0x18>

00001f6a <__swrite>:
__swrite():
    1f6a:	00c5d783          	lhu	a5,12(a1)
    1f6e:	1101                	addi	sp,sp,-32
    1f70:	cc22                	sw	s0,24(sp)
    1f72:	ca26                	sw	s1,20(sp)
    1f74:	c84a                	sw	s2,16(sp)
    1f76:	c64e                	sw	s3,12(sp)
    1f78:	ce06                	sw	ra,28(sp)
    1f7a:	1007f793          	andi	a5,a5,256
    1f7e:	84aa                	mv	s1,a0
    1f80:	842e                	mv	s0,a1
    1f82:	8932                	mv	s2,a2
    1f84:	89b6                	mv	s3,a3
    1f86:	c791                	beqz	a5,1f92 <__swrite+0x28>
    1f88:	00e59583          	lh	a1,14(a1)
    1f8c:	4689                	li	a3,2
    1f8e:	4601                	li	a2,0
    1f90:	2231                	jal	209c <_lseek_r>
    1f92:	00c45783          	lhu	a5,12(s0)
    1f96:	777d                	lui	a4,0xfffff
    1f98:	177d                	addi	a4,a4,-1
    1f9a:	8ff9                	and	a5,a5,a4
    1f9c:	00f41623          	sh	a5,12(s0)
    1fa0:	00e41583          	lh	a1,14(s0)
    1fa4:	4462                	lw	s0,24(sp)
    1fa6:	40f2                	lw	ra,28(sp)
    1fa8:	86ce                	mv	a3,s3
    1faa:	864a                	mv	a2,s2
    1fac:	49b2                	lw	s3,12(sp)
    1fae:	4942                	lw	s2,16(sp)
    1fb0:	8526                	mv	a0,s1
    1fb2:	44d2                	lw	s1,20(sp)
    1fb4:	6105                	addi	sp,sp,32
    1fb6:	a83d                	j	1ff4 <_write_r>

00001fb8 <__sseek>:
__sseek():
    1fb8:	1141                	addi	sp,sp,-16
    1fba:	c422                	sw	s0,8(sp)
    1fbc:	842e                	mv	s0,a1
    1fbe:	00e59583          	lh	a1,14(a1)
    1fc2:	c606                	sw	ra,12(sp)
    1fc4:	28e1                	jal	209c <_lseek_r>
    1fc6:	57fd                	li	a5,-1
    1fc8:	00c45703          	lhu	a4,12(s0)
    1fcc:	00f51b63          	bne	a0,a5,1fe2 <__sseek+0x2a>
    1fd0:	77fd                	lui	a5,0xfffff
    1fd2:	17fd                	addi	a5,a5,-1
    1fd4:	8ff9                	and	a5,a5,a4
    1fd6:	00f41623          	sh	a5,12(s0)
    1fda:	40b2                	lw	ra,12(sp)
    1fdc:	4422                	lw	s0,8(sp)
    1fde:	0141                	addi	sp,sp,16
    1fe0:	8082                	ret
    1fe2:	6785                	lui	a5,0x1
    1fe4:	8fd9                	or	a5,a5,a4
    1fe6:	00f41623          	sh	a5,12(s0)
    1fea:	c868                	sw	a0,84(s0)
    1fec:	b7fd                	j	1fda <__sseek+0x22>

00001fee <__sclose>:
__sclose():
    1fee:	00e59583          	lh	a1,14(a1)
    1ff2:	a805                	j	2022 <_close_r>

00001ff4 <_write_r>:
_write_r():
    1ff4:	1141                	addi	sp,sp,-16
    1ff6:	c422                	sw	s0,8(sp)
    1ff8:	842a                	mv	s0,a0
    1ffa:	852e                	mv	a0,a1
    1ffc:	85b2                	mv	a1,a2
    1ffe:	8636                	mv	a2,a3
    2000:	8001aa23          	sw	zero,-2028(gp) # 20004194 <errno>
    2004:	c606                	sw	ra,12(sp)
    2006:	e83fe0ef          	jal	ra,e88 <_write>
    200a:	57fd                	li	a5,-1
    200c:	00f51763          	bne	a0,a5,201a <_write_r+0x26>
    2010:	81418793          	addi	a5,gp,-2028 # 20004194 <errno>
    2014:	439c                	lw	a5,0(a5)
    2016:	c391                	beqz	a5,201a <_write_r+0x26>
    2018:	c01c                	sw	a5,0(s0)
    201a:	40b2                	lw	ra,12(sp)
    201c:	4422                	lw	s0,8(sp)
    201e:	0141                	addi	sp,sp,16
    2020:	8082                	ret

00002022 <_close_r>:
_close_r():
    2022:	1141                	addi	sp,sp,-16
    2024:	c422                	sw	s0,8(sp)
    2026:	842a                	mv	s0,a0
    2028:	852e                	mv	a0,a1
    202a:	8001aa23          	sw	zero,-2028(gp) # 20004194 <errno>
    202e:	c606                	sw	ra,12(sp)
    2030:	20cd                	jal	2112 <_close>
    2032:	57fd                	li	a5,-1
    2034:	00f51763          	bne	a0,a5,2042 <_close_r+0x20>
    2038:	81418793          	addi	a5,gp,-2028 # 20004194 <errno>
    203c:	439c                	lw	a5,0(a5)
    203e:	c391                	beqz	a5,2042 <_close_r+0x20>
    2040:	c01c                	sw	a5,0(s0)
    2042:	40b2                	lw	ra,12(sp)
    2044:	4422                	lw	s0,8(sp)
    2046:	0141                	addi	sp,sp,16
    2048:	8082                	ret

0000204a <_fstat_r>:
_fstat_r():
    204a:	1141                	addi	sp,sp,-16
    204c:	c422                	sw	s0,8(sp)
    204e:	842a                	mv	s0,a0
    2050:	852e                	mv	a0,a1
    2052:	85b2                	mv	a1,a2
    2054:	8001aa23          	sw	zero,-2028(gp) # 20004194 <errno>
    2058:	c606                	sw	ra,12(sp)
    205a:	20d1                	jal	211e <_fstat>
    205c:	57fd                	li	a5,-1
    205e:	00f51763          	bne	a0,a5,206c <_fstat_r+0x22>
    2062:	81418793          	addi	a5,gp,-2028 # 20004194 <errno>
    2066:	439c                	lw	a5,0(a5)
    2068:	c391                	beqz	a5,206c <_fstat_r+0x22>
    206a:	c01c                	sw	a5,0(s0)
    206c:	40b2                	lw	ra,12(sp)
    206e:	4422                	lw	s0,8(sp)
    2070:	0141                	addi	sp,sp,16
    2072:	8082                	ret

00002074 <_isatty_r>:
_isatty_r():
    2074:	1141                	addi	sp,sp,-16
    2076:	c422                	sw	s0,8(sp)
    2078:	842a                	mv	s0,a0
    207a:	852e                	mv	a0,a1
    207c:	8001aa23          	sw	zero,-2028(gp) # 20004194 <errno>
    2080:	c606                	sw	ra,12(sp)
    2082:	2065                	jal	212a <_isatty>
    2084:	57fd                	li	a5,-1
    2086:	00f51763          	bne	a0,a5,2094 <_isatty_r+0x20>
    208a:	81418793          	addi	a5,gp,-2028 # 20004194 <errno>
    208e:	439c                	lw	a5,0(a5)
    2090:	c391                	beqz	a5,2094 <_isatty_r+0x20>
    2092:	c01c                	sw	a5,0(s0)
    2094:	40b2                	lw	ra,12(sp)
    2096:	4422                	lw	s0,8(sp)
    2098:	0141                	addi	sp,sp,16
    209a:	8082                	ret

0000209c <_lseek_r>:
_lseek_r():
    209c:	1141                	addi	sp,sp,-16
    209e:	c422                	sw	s0,8(sp)
    20a0:	842a                	mv	s0,a0
    20a2:	852e                	mv	a0,a1
    20a4:	85b2                	mv	a1,a2
    20a6:	8636                	mv	a2,a3
    20a8:	8001aa23          	sw	zero,-2028(gp) # 20004194 <errno>
    20ac:	c606                	sw	ra,12(sp)
    20ae:	2061                	jal	2136 <_lseek>
    20b0:	57fd                	li	a5,-1
    20b2:	00f51763          	bne	a0,a5,20c0 <_lseek_r+0x24>
    20b6:	81418793          	addi	a5,gp,-2028 # 20004194 <errno>
    20ba:	439c                	lw	a5,0(a5)
    20bc:	c391                	beqz	a5,20c0 <_lseek_r+0x24>
    20be:	c01c                	sw	a5,0(s0)
    20c0:	40b2                	lw	ra,12(sp)
    20c2:	4422                	lw	s0,8(sp)
    20c4:	0141                	addi	sp,sp,16
    20c6:	8082                	ret

000020c8 <memchr>:
memchr():
    20c8:	0ff5f593          	andi	a1,a1,255
    20cc:	962a                	add	a2,a2,a0
    20ce:	00c51463          	bne	a0,a2,20d6 <memchr+0xe>
    20d2:	4501                	li	a0,0
    20d4:	8082                	ret
    20d6:	00054783          	lbu	a5,0(a0)
    20da:	feb78de3          	beq	a5,a1,20d4 <memchr+0xc>
    20de:	0505                	addi	a0,a0,1
    20e0:	b7fd                	j	20ce <memchr+0x6>

000020e2 <__malloc_lock>:
__malloc_lock():
    20e2:	8082                	ret

000020e4 <__malloc_unlock>:
__malloc_unlock():
    20e4:	8082                	ret

000020e6 <_read_r>:
_read_r():
    20e6:	1141                	addi	sp,sp,-16
    20e8:	c422                	sw	s0,8(sp)
    20ea:	842a                	mv	s0,a0
    20ec:	852e                	mv	a0,a1
    20ee:	85b2                	mv	a1,a2
    20f0:	8636                	mv	a2,a3
    20f2:	8001aa23          	sw	zero,-2028(gp) # 20004194 <errno>
    20f6:	c606                	sw	ra,12(sp)
    20f8:	20a9                	jal	2142 <_read>
    20fa:	57fd                	li	a5,-1
    20fc:	00f51763          	bne	a0,a5,210a <_read_r+0x24>
    2100:	81418793          	addi	a5,gp,-2028 # 20004194 <errno>
    2104:	439c                	lw	a5,0(a5)
    2106:	c391                	beqz	a5,210a <_read_r+0x24>
    2108:	c01c                	sw	a5,0(s0)
    210a:	40b2                	lw	ra,12(sp)
    210c:	4422                	lw	s0,8(sp)
    210e:	0141                	addi	sp,sp,16
    2110:	8082                	ret

00002112 <_close>:
_close():
    2112:	05800793          	li	a5,88
    2116:	80f1aa23          	sw	a5,-2028(gp) # 20004194 <errno>
    211a:	557d                	li	a0,-1
    211c:	8082                	ret

0000211e <_fstat>:
_fstat():
    211e:	05800793          	li	a5,88
    2122:	80f1aa23          	sw	a5,-2028(gp) # 20004194 <errno>
    2126:	557d                	li	a0,-1
    2128:	8082                	ret

0000212a <_isatty>:
_isatty():
    212a:	05800793          	li	a5,88
    212e:	80f1aa23          	sw	a5,-2028(gp) # 20004194 <errno>
    2132:	4501                	li	a0,0
    2134:	8082                	ret

00002136 <_lseek>:
_lseek():
    2136:	05800793          	li	a5,88
    213a:	80f1aa23          	sw	a5,-2028(gp) # 20004194 <errno>
    213e:	557d                	li	a0,-1
    2140:	8082                	ret

00002142 <_read>:
_read():
    2142:	05800793          	li	a5,88
    2146:	80f1aa23          	sw	a5,-2028(gp) # 20004194 <errno>
    214a:	557d                	li	a0,-1
    214c:	8082                	ret

0000214e <_sbrk>:
_sbrk():
    214e:	81018793          	addi	a5,gp,-2032 # 20004190 <heap_end.1518>
    2152:	439c                	lw	a5,0(a5)
    2154:	c791                	beqz	a5,2160 <_sbrk+0x12>
    2156:	953e                	add	a0,a0,a5
    2158:	80a1a823          	sw	a0,-2032(gp) # 20004190 <heap_end.1518>
    215c:	853e                	mv	a0,a5
    215e:	8082                	ret
    2160:	81818793          	addi	a5,gp,-2024 # 20004198 <_ebss>
    2164:	953e                	add	a0,a0,a5
    2166:	80a1a823          	sw	a0,-2032(gp) # 20004190 <heap_end.1518>
    216a:	853e                	mv	a0,a5
    216c:	8082                	ret
    216e:	0000                	unimp
    2170:	72617453          	0x72617453
    2174:	2074                	fld	fa3,192(s0)
    2176:	4340                	lw	s0,4(a4)
    2178:	6968                	flw	fa0,84(a0)
    217a:	4970                	lw	a2,84(a0)
    217c:	3d44                	fld	fs1,184(a0)
    217e:	3025                	jal	19a6 <_vfiprintf_r+0xe0>
    2180:	7832                	flw	fa6,44(sp)
    2182:	000a                	c.slli	zero,0x2
    2184:	4449                	li	s0,18
    2186:	454c                	lw	a1,12(a0)
    2188:	6d20                	flw	fs0,88(a0)
    218a:	2065646f          	jal	s0,58390 <_data_lma+0x560e4>
    218e:	65656c73          	csrrsi	s8,0x656,10
    2192:	2070                	fld	fa2,192(s0)
    2194:	0000                	unimp
    2196:	0000                	unimp
    2198:	656b6177          	0x656b6177
    219c:	2e2e                	fld	ft8,200(sp)
    219e:	0020                	addi	s0,sp,8
    21a0:	6148                	flw	fa0,4(a0)
    21a2:	746c                	flw	fa1,108(s0)
    21a4:	6d20                	flw	fs0,88(a0)
    21a6:	2065646f          	jal	s0,583ac <_data_lma+0x56100>
    21aa:	65656c73          	csrrsi	s8,0x656,10
    21ae:	2070                	fld	fa2,192(s0)
    21b0:	0000                	unimp
    21b2:	0000                	unimp
    21b4:	65656c73          	csrrsi	s8,0x656,10
    21b8:	2070                	fld	fa2,192(s0)
    21ba:	6f6d                	lui	t5,0x1b
    21bc:	6564                	flw	fs1,76(a0)
    21be:	7320                	flw	fs0,96(a4)
    21c0:	656c                	flw	fa1,76(a0)
    21c2:	7065                	c.lui	zero,0xffff9
    21c4:	0020                	addi	s0,sp,8
    21c6:	0000                	unimp
    21c8:	74756873          	csrrsi	a6,0x747,10
    21cc:	6420                	flw	fs0,72(s0)
    21ce:	206e776f          	jal	a4,e93d4 <_data_lma+0xe7128>
    21d2:	6f6d                	lui	t5,0x1b
    21d4:	6564                	flw	fs1,76(a0)
    21d6:	7320                	flw	fs0,96(a4)
    21d8:	656c                	flw	fa1,76(a0)
    21da:	7065                	c.lui	zero,0xffff9
    21dc:	0020                	addi	s0,sp,8
    21de:	0000                	unimp
    21e0:	ea38                	fsw	fa4,80(a2)
    21e2:	ffff                	0xffff
    21e4:	ea60                	fsw	fs0,84(a2)
    21e6:	ffff                	0xffff
    21e8:	ea88                	fsw	fa0,16(a3)
    21ea:	ffff                	0xffff
    21ec:	eaa0                	fsw	fs0,80(a3)
    21ee:	ffff                	0xffff
    21f0:	eaba                	fsw	fa4,84(sp)
    21f2:	ffff                	0xffff
    21f4:	eaca                	fsw	fs2,84(sp)
    21f6:	ffff                	0xffff
    21f8:	eaf2                	fsw	ft8,84(sp)
    21fa:	ffff                	0xffff
    21fc:	eb1a                	fsw	ft6,148(sp)
    21fe:	ffff                	0xffff
    2200:	eb32                	fsw	fa2,148(sp)
    2202:	ffff                	0xffff
    2204:	eb4c                	fsw	fa1,20(a4)
    2206:	ffff                	0xffff

00002208 <__sf_fake_stderr>:
	...

00002228 <__sf_fake_stdin>:
	...

00002248 <__sf_fake_stdout>:
	...
    2268:	2d23 2b30 0020 0000 6c68 004c 6665 4567     #-0+ ...hlL.efgE
    2278:	4746 0000 3130 3332 3534 3736 3938 4241     FG..0123456789AB
    2288:	4443 4645 0000 0000 3130 3332 3534 3736     CDEF....01234567
    2298:	3938 6261 6463 6665 0000 0000               89abcdef....

000022a4 <CSWTCH.10>:
    22a4:	c040 8000                                   @...

000022a8 <_global_impure_ptr>:
    22a8:	411c 2000                                   .A. 
